                                      1 ;--------------------------------------------------------
                                      2 ; File Created by SDCC : free open source ANSI-C Compiler
                                      3 ; Version 4.1.6 #12539 (MINGW32)
                                      4 ;--------------------------------------------------------
                                      5 	.module main
                                      6 	.optsdcc -mgbz80
                                      7 	
                                      8 ;--------------------------------------------------------
                                      9 ; Public variables in this module
                                     10 ;--------------------------------------------------------
                                     11 	.globl _main
                                     12 	.globl _ball_movement
                                     13 	.globl _ai_movement
                                     14 	.globl _movement
                                     15 	.globl _init_ball
                                     16 	.globl _init_AI
                                     17 	.globl _init_player
                                     18 	.globl _update_score
                                     19 	.globl _init_score
                                     20 	.globl _moveCharacter
                                     21 	.globl _start_game
                                     22 	.globl _init_map
                                     23 	.globl _init_min_font
                                     24 	.globl _flashy_start
                                     25 	.globl _play_score
                                     26 	.globl _play_jumpy_sound
                                     27 	.globl _sound_init
                                     28 	.globl _initGame
                                     29 	.globl _make_show_win_map
                                     30 	.globl _toString
                                     31 	.globl _strlen
                                     32 	.globl _rand
                                     33 	.globl _initrand
                                     34 	.globl _free
                                     35 	.globl _malloc
                                     36 	.globl _puts
                                     37 	.globl _font_set
                                     38 	.globl _font_load
                                     39 	.globl _font_init
                                     40 	.globl _set_sprite_data
                                     41 	.globl _set_win_tiles
                                     42 	.globl _set_bkg_tiles
                                     43 	.globl _get_bkg_data
                                     44 	.globl _set_bkg_data
                                     45 	.globl _wait_vbl_done
                                     46 	.globl _waitpad
                                     47 	.globl _joypad
                                     48 	.globl _timer
                                     49 	.globl _canAImove
                                     50 	.globl _yBall
                                     51 	.globl _xBall
                                     52 	.globl _gamePaused
                                     53 	.globl _screenTitleMap
                                     54 	.globl _clearBKGTiles
                                     55 	.globl _ball_alive
                                     56 	.globl _ballCentre
                                     57 	.globl _AICentre
                                     58 	.globl _speed_x
                                     59 	.globl _speed_y
                                     60 	.globl _AI
                                     61 	.globl _player
                                     62 	.globl _ball
                                     63 	.globl _low
                                     64 	.globl _mid
                                     65 	.globl _top
                                     66 	.globl _TileLabel
                                     67 	.globl _pressStartMap
                                     68 	.globl _character
                                     69 ;--------------------------------------------------------
                                     70 ; special function registers
                                     71 ;--------------------------------------------------------
                                     72 ;--------------------------------------------------------
                                     73 ; ram data
                                     74 ;--------------------------------------------------------
                                     75 	.area _DATA
      000000                         76 _player::
      000000                         77 	.ds 14
      00000E                         78 _AI::
      00000E                         79 	.ds 14
      00001C                         80 _speed_y::
      00001C                         81 	.ds 1
      00001D                         82 _speed_x::
      00001D                         83 	.ds 1
      00001E                         84 _AICentre::
      00001E                         85 	.ds 1
      00001F                         86 _ballCentre::
      00001F                         87 	.ds 1
      000020                         88 _ball_alive::
      000020                         89 	.ds 1
                                     90 ;--------------------------------------------------------
                                     91 ; ram data
                                     92 ;--------------------------------------------------------
                                     93 	.area _INITIALIZED
      000000                         94 _clearBKGTiles::
      000000                         95 	.ds 360
      000168                         96 _screenTitleMap::
      000168                         97 	.ds 360
      0002D0                         98 _gamePaused::
      0002D0                         99 	.ds 1
      0002D1                        100 _xBall::
      0002D1                        101 	.ds 2
      0002D3                        102 _yBall::
      0002D3                        103 	.ds 2
      0002D5                        104 _canAImove::
      0002D5                        105 	.ds 1
      0002D6                        106 _timer::
      0002D6                        107 	.ds 1
                                    108 ;--------------------------------------------------------
                                    109 ; absolute external ram data
                                    110 ;--------------------------------------------------------
                                    111 	.area _DABS (ABS)
                                    112 ;--------------------------------------------------------
                                    113 ; global & static initialisations
                                    114 ;--------------------------------------------------------
                                    115 	.area _HOME
                                    116 	.area _GSINIT
                                    117 	.area _GSFINAL
                                    118 	.area _GSINIT
                                    119 ;--------------------------------------------------------
                                    120 ; Home
                                    121 ;--------------------------------------------------------
                                    122 	.area _HOME
                                    123 	.area _HOME
                                    124 ;--------------------------------------------------------
                                    125 ; code
                                    126 ;--------------------------------------------------------
                                    127 	.area _CODE
                                    128 ;utils/tools.c:81: char* toString(uint8 num)
                                    129 ;	---------------------------------
                                    130 ; Function toString
                                    131 ; ---------------------------------
      000000                        132 _toString::
      000000 3B                     133 	dec	sp
                                    134 ;utils/tools.c:86: uint8_t size = number_count_minimal(num);
      000001 F8 03                  135 	ldhl	sp,	#3
      000003 2A                     136 	ld	a, (hl+)
      000004 4F                     137 	ld	c, a
      000005 46                     138 	ld	b, (hl)
      000006 79                     139 	ld	a, c
      000007 D6 0A                  140 	sub	a, #0x0a
      000009 78                     141 	ld	a, b
      00000A DE 00                  142 	sbc	a, #0x00
      00000C 30 04                  143 	jr	NC, 00111$
      00000E 1E 00                  144 	ld	e, #0x00
      000010 18 1A                  145 	jr	00113$
      000012                        146 00111$:
      000012 79                     147 	ld	a, c
      000013 D6 64                  148 	sub	a, #0x64
      000015 78                     149 	ld	a, b
      000016 DE 00                  150 	sbc	a, #0x00
      000018 30 04                  151 	jr	NC, 00109$
      00001A 1E 01                  152 	ld	e, #0x01
      00001C 18 0E                  153 	jr	00113$
      00001E                        154 00109$:
      00001E 79                     155 	ld	a, c
      00001F D6 E8                  156 	sub	a, #0xe8
      000021 78                     157 	ld	a, b
      000022 DE 03                  158 	sbc	a, #0x03
      000024 30 04                  159 	jr	NC, 00107$
      000026 1E 02                  160 	ld	e, #0x02
      000028 18 02                  161 	jr	00113$
      00002A                        162 00107$:
      00002A 1E 03                  163 	ld	e, #0x03
      00002C                        164 00113$:
                                    165 ;utils/tools.c:88: char *a = malloc((size + 1) * sizeof(char));
      00002C 4B                     166 	ld	c, e
      00002D 06 00                  167 	ld	b, #0x00
      00002F 03                     168 	inc	bc
      000030 D5                     169 	push	de
      000031 C5                     170 	push	bc
      000032 CDr00r00               171 	call	_malloc
      000035 E1                     172 	pop	hl
      000036 4B                     173 	ld	c, e
      000037 42                     174 	ld	b, d
      000038 D1                     175 	pop	de
                                    176 ;utils/tools.c:93: uint8_t i = size + 1;
                                    177 ;utils/tools.c:94: a[i --] = '\0';
      000039 1C                     178 	inc	e
      00003A 7B                     179 	ld	a, e
      00003B 3D                     180 	dec	a
      00003C F8 00                  181 	ldhl	sp,	#0
      00003E 77                     182 	ld	(hl), a
      00003F 6B                     183 	ld	l, e
      000040 26 00                  184 	ld	h, #0x00
      000042 09                     185 	add	hl, bc
      000043 36 00                  186 	ld	(hl), #0x00
                                    187 ;utils/tools.c:96: while(num)
      000045                        188 00101$:
      000045 F8 04                  189 	ldhl	sp,	#4
      000047 3A                     190 	ld	a, (hl-)
      000048 B6                     191 	or	a, (hl)
      000049 28 40                  192 	jr	Z, 00103$
                                    193 ;utils/tools.c:98: a[i --] = digits[num%10];
      00004B F8 00                  194 	ldhl	sp,	#0
      00004D 6E                     195 	ld	l, (hl)
      00004E 26 00                  196 	ld	h, #0x00
      000050 09                     197 	add	hl, bc
      000051 5D                     198 	ld	e, l
      000052 54                     199 	ld	d, h
      000053 F8 00                  200 	ldhl	sp,	#0
      000055 35                     201 	dec	(hl)
      000056 C5                     202 	push	bc
      000057 D5                     203 	push	de
      000058 21 0A 00               204 	ld	hl, #0x000a
      00005B E5                     205 	push	hl
      00005C F8 09                  206 	ldhl	sp,	#9
      00005E 2A                     207 	ld	a, (hl+)
      00005F 66                     208 	ld	h, (hl)
                                    209 ;	spillPairReg hl
                                    210 ;	spillPairReg hl
      000060 6F                     211 	ld	l, a
                                    212 ;	spillPairReg hl
                                    213 ;	spillPairReg hl
      000061 E5                     214 	push	hl
      000062 CDr00r00               215 	call	__moduint
      000065 E8 04                  216 	add	sp, #4
      000067 6B                     217 	ld	l, e
                                    218 ;	spillPairReg hl
                                    219 ;	spillPairReg hl
      000068 62                     220 	ld	h, d
                                    221 ;	spillPairReg hl
                                    222 ;	spillPairReg hl
      000069 D1                     223 	pop	de
      00006A C1                     224 	pop	bc
      00006B D5                     225 	push	de
      00006C 11rE2r00               226 	ld	de, #_toString_digits_65536_153
      00006F 19                     227 	add	hl, de
      000070 D1                     228 	pop	de
      000071 7E                     229 	ld	a, (hl)
      000072 12                     230 	ld	(de), a
                                    231 ;utils/tools.c:99: num /=10;
      000073 C5                     232 	push	bc
      000074 11 0A 00               233 	ld	de, #0x000a
      000077 D5                     234 	push	de
      000078 F8 07                  235 	ldhl	sp,	#7
      00007A 2A                     236 	ld	a, (hl+)
      00007B 5F                     237 	ld	e, a
      00007C 56                     238 	ld	d, (hl)
      00007D D5                     239 	push	de
      00007E CDr00r00               240 	call	__divuint
      000081 E8 04                  241 	add	sp, #4
      000083 C1                     242 	pop	bc
      000084 F8 03                  243 	ldhl	sp,	#3
      000086 7B                     244 	ld	a, e
      000087 22                     245 	ld	(hl+), a
      000088 72                     246 	ld	(hl), d
      000089 18 BA                  247 	jr	00101$
      00008B                        248 00103$:
                                    249 ;utils/tools.c:102: return a;
      00008B 59                     250 	ld	e, c
      00008C 50                     251 	ld	d, b
                                    252 ;utils/tools.c:104: }
      00008D 33                     253 	inc	sp
      00008E C9                     254 	ret
      00008F                        255 _character:
      00008F FF                     256 	.db #0xff	; 255
      000090 FF                     257 	.db #0xff	; 255
      000091 FD                     258 	.db #0xfd	; 253
      000092 83                     259 	.db #0x83	; 131
      000093 FD                     260 	.db #0xfd	; 253
      000094 83                     261 	.db #0x83	; 131
      000095 FD                     262 	.db #0xfd	; 253
      000096 83                     263 	.db #0x83	; 131
      000097 FD                     264 	.db #0xfd	; 253
      000098 83                     265 	.db #0x83	; 131
      000099 FD                     266 	.db #0xfd	; 253
      00009A 83                     267 	.db #0x83	; 131
      00009B FD                     268 	.db #0xfd	; 253
      00009C 83                     269 	.db #0x83	; 131
      00009D FD                     270 	.db #0xfd	; 253
      00009E 83                     271 	.db #0x83	; 131
      00009F FD                     272 	.db #0xfd	; 253
      0000A0 83                     273 	.db #0x83	; 131
      0000A1 FD                     274 	.db #0xfd	; 253
      0000A2 83                     275 	.db #0x83	; 131
      0000A3 FD                     276 	.db #0xfd	; 253
      0000A4 83                     277 	.db #0x83	; 131
      0000A5 FD                     278 	.db #0xfd	; 253
      0000A6 83                     279 	.db #0x83	; 131
      0000A7 FD                     280 	.db #0xfd	; 253
      0000A8 83                     281 	.db #0x83	; 131
      0000A9 FD                     282 	.db #0xfd	; 253
      0000AA 83                     283 	.db #0x83	; 131
      0000AB FD                     284 	.db #0xfd	; 253
      0000AC 83                     285 	.db #0x83	; 131
      0000AD FD                     286 	.db #0xfd	; 253
      0000AE 83                     287 	.db #0x83	; 131
      0000AF FD                     288 	.db #0xfd	; 253
      0000B0 83                     289 	.db #0x83	; 131
      0000B1 FD                     290 	.db #0xfd	; 253
      0000B2 83                     291 	.db #0x83	; 131
      0000B3 FD                     292 	.db #0xfd	; 253
      0000B4 83                     293 	.db #0x83	; 131
      0000B5 FD                     294 	.db #0xfd	; 253
      0000B6 83                     295 	.db #0x83	; 131
      0000B7 FD                     296 	.db #0xfd	; 253
      0000B8 83                     297 	.db #0x83	; 131
      0000B9 FD                     298 	.db #0xfd	; 253
      0000BA 83                     299 	.db #0x83	; 131
      0000BB 81                     300 	.db #0x81	; 129
      0000BC FF                     301 	.db #0xff	; 255
      0000BD FF                     302 	.db #0xff	; 255
      0000BE FF                     303 	.db #0xff	; 255
      0000BF 3C                     304 	.db #0x3c	; 60
      0000C0 3C                     305 	.db #0x3c	; 60
      0000C1 7E                     306 	.db #0x7e	; 126
      0000C2 42                     307 	.db #0x42	; 66	'B'
      0000C3 E9                     308 	.db #0xe9	; 233
      0000C4 97                     309 	.db #0x97	; 151
      0000C5 D1                     310 	.db #0xd1	; 209
      0000C6 AF                     311 	.db #0xaf	; 175
      0000C7 E9                     312 	.db #0xe9	; 233
      0000C8 97                     313 	.db #0x97	; 151
      0000C9 D1                     314 	.db #0xd1	; 209
      0000CA AF                     315 	.db #0xaf	; 175
      0000CB 62                     316 	.db #0x62	; 98	'b'
      0000CC 5E                     317 	.db #0x5e	; 94
      0000CD 3C                     318 	.db #0x3c	; 60
      0000CE 3C                     319 	.db #0x3c	; 60
      0000CF                        320 _pressStartMap:
      0000CF 1A                     321 	.db #0x1a	; 26
      0000D0 1C                     322 	.db #0x1c	; 28
      0000D1 0F                     323 	.db #0x0f	; 15
      0000D2 1D                     324 	.db #0x1d	; 29
      0000D3 1D                     325 	.db #0x1d	; 29
      0000D4 00                     326 	.db #0x00	; 0
      0000D5 1D                     327 	.db #0x1d	; 29
      0000D6 1E                     328 	.db #0x1e	; 30
      0000D7 0B                     329 	.db #0x0b	; 11
      0000D8 1C                     330 	.db #0x1c	; 28
      0000D9 1E                     331 	.db #0x1e	; 30
      0000DA                        332 _clear_map:
      0000DA 00                     333 	.db #0x00	; 0
      0000DB 00                     334 	.db #0x00	; 0
      0000DC 00                     335 	.db #0x00	; 0
      0000DD 00                     336 	.db #0x00	; 0
      0000DE 00                     337 	.db #0x00	; 0
      0000DF 00                     338 	.db #0x00	; 0
      0000E0 00                     339 	.db #0x00	; 0
      0000E1 00                     340 	.db #0x00	; 0
      0000E2                        341 _toString_digits_65536_153:
      0000E2 30 31 32 33 34 35 36   342 	.ascii "0123456789"
             37 38 39
      0000EC 00                     343 	.db 0x00
                                    344 ;utils/tools.c:206: void make_show_win_map(int x, int y, int h, char text[])
                                    345 ;	---------------------------------
                                    346 ; Function make_show_win_map
                                    347 ; ---------------------------------
      0000ED                        348 _make_show_win_map::
      0000ED E8 F8                  349 	add	sp, #-8
                                    350 ;utils/tools.c:209: int w = strlen(text);
      0000EF F8 10                  351 	ldhl	sp,	#16
      0000F1 2A                     352 	ld	a, (hl+)
      0000F2 5F                     353 	ld	e, a
      0000F3 56                     354 	ld	d, (hl)
      0000F4 D5                     355 	push	de
      0000F5 CDr00r00               356 	call	_strlen
      0000F8 E8 04                  357 	add	sp, #4
      0000FA D5                     358 	push	de
                                    359 ;utils/tools.c:211: unsigned char* win_map = malloc(sizeof(unsigned char) * w * h);
      0000FB F8 0E                  360 	ldhl	sp,	#14
      0000FD 2A                     361 	ld	a, (hl+)
      0000FE 5F                     362 	ld	e, a
      0000FF 56                     363 	ld	d, (hl)
      000100 D5                     364 	push	de
      000101 F8 02                  365 	ldhl	sp,	#2
      000103 2A                     366 	ld	a, (hl+)
      000104 5F                     367 	ld	e, a
      000105 56                     368 	ld	d, (hl)
      000106 D5                     369 	push	de
      000107 CDr00r00               370 	call	__mulint
      00010A E8 04                  371 	add	sp, #4
      00010C F8 02                  372 	ldhl	sp,	#2
      00010E 7B                     373 	ld	a, e
      00010F 22                     374 	ld	(hl+), a
      000110 72                     375 	ld	(hl), d
      000111 F8 02                  376 	ldhl	sp,	#2
      000113 2A                     377 	ld	a, (hl+)
      000114 5F                     378 	ld	e, a
      000115 56                     379 	ld	d, (hl)
      000116 D5                     380 	push	de
      000117 CDr00r00               381 	call	_malloc
      00011A E1                     382 	pop	hl
      00011B F8 04                  383 	ldhl	sp,	#4
      00011D 7B                     384 	ld	a, e
      00011E 22                     385 	ld	(hl+), a
      00011F 72                     386 	ld	(hl), d
                                    387 ;utils/tools.c:213: for(int i = 0; i < w * h; ++i)
      000120 01 00 00               388 	ld	bc, #0x0000
      000123                        389 00142$:
      000123 F8 02                  390 	ldhl	sp,	#2
      000125 79                     391 	ld	a, c
      000126 96                     392 	sub	a, (hl)
      000127 23                     393 	inc	hl
      000128 78                     394 	ld	a, b
      000129 9E                     395 	sbc	a, (hl)
      00012A 78                     396 	ld	a, b
      00012B 57                     397 	ld	d, a
      00012C CB 7E                  398 	bit	7, (hl)
      00012E 28 07                  399 	jr	Z, 00167$
      000130 CB 7A                  400 	bit	7, d
      000132 20 08                  401 	jr	NZ, 00168$
      000134 BF                     402 	cp	a, a
      000135 18 05                  403 	jr	00168$
      000137                        404 00167$:
      000137 CB 7A                  405 	bit	7, d
      000139 28 01                  406 	jr	Z, 00168$
      00013B 37                     407 	scf
      00013C                        408 00168$:
      00013C D2rA8r02               409 	jp	NC, 00101$
                                    410 ;utils/tools.c:215: win_map[i] = transform_text(text[i]);
      00013F F8 04                  411 	ldhl	sp,	#4
      000141 2A                     412 	ld	a,	(hl+)
      000142 66                     413 	ld	h, (hl)
      000143 6F                     414 	ld	l, a
      000144 09                     415 	add	hl, bc
      000145 E5                     416 	push	hl
      000146 7D                     417 	ld	a, l
      000147 F8 08                  418 	ldhl	sp,	#8
      000149 77                     419 	ld	(hl), a
      00014A E1                     420 	pop	hl
      00014B 7C                     421 	ld	a, h
      00014C F8 07                  422 	ldhl	sp,	#7
      00014E 77                     423 	ld	(hl), a
      00014F F8 10                  424 	ldhl	sp,	#16
      000151 2A                     425 	ld	a,	(hl+)
      000152 66                     426 	ld	h, (hl)
      000153 6F                     427 	ld	l, a
      000154 09                     428 	add	hl, bc
      000155 5D                     429 	ld	e, l
      000156 54                     430 	ld	d, h
      000157 1A                     431 	ld	a, (de)
                                    432 ;	spillPairReg hl
                                    433 ;	spillPairReg hl
                                    434 ;utils/tools.c:109: switch(text)
      000158 6F                     435 	ld	l, a
      000159 EE 80                  436 	xor	a, #0x80
      00015B D6 B0                  437 	sub	a, #0xb0
      00015D DAr9Br02               438 	jp	C, 00138$
      000160 5D                     439 	ld	e, l
      000161 3E 5A                  440 	ld	a,#0x5a
      000163 57                     441 	ld	d,a
      000164 95                     442 	sub	a, l
      000165 CB 7B                  443 	bit	7, e
      000167 28 07                  444 	jr	Z, 00169$
      000169 CB 7A                  445 	bit	7, d
      00016B 20 08                  446 	jr	NZ, 00170$
      00016D BF                     447 	cp	a, a
      00016E 18 05                  448 	jr	00170$
      000170                        449 00169$:
      000170 CB 7A                  450 	bit	7, d
      000172 28 01                  451 	jr	Z, 00170$
      000174 37                     452 	scf
      000175                        453 00170$:
      000175 DAr9Br02               454 	jp	C, 00138$
      000178 7D                     455 	ld	a, l
      000179 C6 D0                  456 	add	a, #0xd0
      00017B 5F                     457 	ld	e, a
      00017C 16 00                  458 	ld	d, #0x00
      00017E 21r85r01               459 	ld	hl, #00171$
      000181 19                     460 	add	hl, de
      000182 19                     461 	add	hl, de
      000183 19                     462 	add	hl, de
      000184 E9                     463 	jp	(hl)
      000185                        464 00171$:
      000185 C3r73r02               465 	jp	00128$
      000188 C3r77r02               466 	jp	00129$
      00018B C3r7Br02               467 	jp	00130$
      00018E C3r7Fr02               468 	jp	00131$
      000191 C3r83r02               469 	jp	00132$
      000194 C3r87r02               470 	jp	00133$
      000197 C3r8Br02               471 	jp	00134$
      00019A C3r8Fr02               472 	jp	00135$
      00019D C3r93r02               473 	jp	00136$
      0001A0 C3r97r02               474 	jp	00137$
      0001A3 C3r9Br02               475 	jp	00138$
      0001A6 C3r9Br02               476 	jp	00138$
      0001A9 C3r9Br02               477 	jp	00138$
      0001AC C3r9Br02               478 	jp	00138$
      0001AF C3r9Br02               479 	jp	00138$
      0001B2 C3r9Br02               480 	jp	00138$
      0001B5 C3r9Br02               481 	jp	00138$
      0001B8 C3r06r02               482 	jp	00102$
      0001BB C3r0Br02               483 	jp	00103$
      0001BE C3r10r02               484 	jp	00104$
      0001C1 C3r15r02               485 	jp	00105$
      0001C4 C3r1Ar02               486 	jp	00106$
      0001C7 C3r1Fr02               487 	jp	00107$
      0001CA C3r23r02               488 	jp	00108$
      0001CD C3r27r02               489 	jp	00109$
      0001D0 C3r2Br02               490 	jp	00110$
      0001D3 C3r2Fr02               491 	jp	00111$
      0001D6 C3r33r02               492 	jp	00112$
      0001D9 C3r37r02               493 	jp	00113$
      0001DC C3r3Br02               494 	jp	00114$
      0001DF C3r3Fr02               495 	jp	00115$
      0001E2 C3r43r02               496 	jp	00116$
      0001E5 C3r47r02               497 	jp	00117$
      0001E8 C3r4Br02               498 	jp	00118$
      0001EB C3r4Fr02               499 	jp	00119$
      0001EE C3r53r02               500 	jp	00120$
      0001F1 C3r57r02               501 	jp	00121$
      0001F4 C3r5Br02               502 	jp	00122$
      0001F7 C3r5Fr02               503 	jp	00123$
      0001FA C3r63r02               504 	jp	00124$
      0001FD C3r67r02               505 	jp	00125$
      000200 C3r6Br02               506 	jp	00126$
      000203 C3r6Fr02               507 	jp	00127$
                                    508 ;utils/tools.c:111: case 'A':
      000206                        509 00102$:
                                    510 ;utils/tools.c:112: return A;
      000206 3E 0B                  511 	ld	a, #0x0b
      000208 C3r9Cr02               512 	jp	00140$
                                    513 ;utils/tools.c:113: case 'B':
      00020B                        514 00103$:
                                    515 ;utils/tools.c:114: return B;
      00020B 3E 0C                  516 	ld	a, #0x0c
      00020D C3r9Cr02               517 	jp	00140$
                                    518 ;utils/tools.c:115: case 'C':
      000210                        519 00104$:
                                    520 ;utils/tools.c:116: return C;
      000210 3E 0D                  521 	ld	a, #0x0d
      000212 C3r9Cr02               522 	jp	00140$
                                    523 ;utils/tools.c:117: case 'D':
      000215                        524 00105$:
                                    525 ;utils/tools.c:118: return D;
      000215 3E 0E                  526 	ld	a, #0x0e
      000217 C3r9Cr02               527 	jp	00140$
                                    528 ;utils/tools.c:119: case 'E':
      00021A                        529 00106$:
                                    530 ;utils/tools.c:120: return E;
      00021A 3E 0F                  531 	ld	a, #0x0f
      00021C C3r9Cr02               532 	jp	00140$
                                    533 ;utils/tools.c:121: case 'F':
      00021F                        534 00107$:
                                    535 ;utils/tools.c:122: return F;
      00021F 3E 10                  536 	ld	a, #0x10
      000221 18 79                  537 	jr	00140$
                                    538 ;utils/tools.c:123: case 'G':
      000223                        539 00108$:
                                    540 ;utils/tools.c:124: return G;
      000223 3E 11                  541 	ld	a, #0x11
      000225 18 75                  542 	jr	00140$
                                    543 ;utils/tools.c:125: case 'H':
      000227                        544 00109$:
                                    545 ;utils/tools.c:126: return H;
      000227 3E 12                  546 	ld	a, #0x12
      000229 18 71                  547 	jr	00140$
                                    548 ;utils/tools.c:127: case 'I':
      00022B                        549 00110$:
                                    550 ;utils/tools.c:128: return I;
      00022B 3E 13                  551 	ld	a, #0x13
      00022D 18 6D                  552 	jr	00140$
                                    553 ;utils/tools.c:129: case 'J':
      00022F                        554 00111$:
                                    555 ;utils/tools.c:130: return J;
      00022F 3E 14                  556 	ld	a, #0x14
      000231 18 69                  557 	jr	00140$
                                    558 ;utils/tools.c:131: case 'K':
      000233                        559 00112$:
                                    560 ;utils/tools.c:132: return K;
      000233 3E 15                  561 	ld	a, #0x15
      000235 18 65                  562 	jr	00140$
                                    563 ;utils/tools.c:133: case 'L':
      000237                        564 00113$:
                                    565 ;utils/tools.c:134: return L;
      000237 3E 16                  566 	ld	a, #0x16
      000239 18 61                  567 	jr	00140$
                                    568 ;utils/tools.c:135: case 'M':
      00023B                        569 00114$:
                                    570 ;utils/tools.c:136: return M;
      00023B 3E 17                  571 	ld	a, #0x17
      00023D 18 5D                  572 	jr	00140$
                                    573 ;utils/tools.c:137: case 'N':
      00023F                        574 00115$:
                                    575 ;utils/tools.c:138: return N;
      00023F 3E 18                  576 	ld	a, #0x18
      000241 18 59                  577 	jr	00140$
                                    578 ;utils/tools.c:139: case 'O':
      000243                        579 00116$:
                                    580 ;utils/tools.c:140: return O;
      000243 3E 19                  581 	ld	a, #0x19
      000245 18 55                  582 	jr	00140$
                                    583 ;utils/tools.c:141: case 'P':
      000247                        584 00117$:
                                    585 ;utils/tools.c:142: return P;
      000247 3E 1A                  586 	ld	a, #0x1a
      000249 18 51                  587 	jr	00140$
                                    588 ;utils/tools.c:143: case 'Q':
      00024B                        589 00118$:
                                    590 ;utils/tools.c:144: return Q;
      00024B 3E 1B                  591 	ld	a, #0x1b
      00024D 18 4D                  592 	jr	00140$
                                    593 ;utils/tools.c:145: case 'R':
      00024F                        594 00119$:
                                    595 ;utils/tools.c:146: return R;
      00024F 3E 1C                  596 	ld	a, #0x1c
      000251 18 49                  597 	jr	00140$
                                    598 ;utils/tools.c:147: case 'S':
      000253                        599 00120$:
                                    600 ;utils/tools.c:148: return S;
      000253 3E 1D                  601 	ld	a, #0x1d
      000255 18 45                  602 	jr	00140$
                                    603 ;utils/tools.c:149: case 'T':
      000257                        604 00121$:
                                    605 ;utils/tools.c:150: return T;
      000257 3E 1E                  606 	ld	a, #0x1e
      000259 18 41                  607 	jr	00140$
                                    608 ;utils/tools.c:151: case 'U':
      00025B                        609 00122$:
                                    610 ;utils/tools.c:152: return U;
      00025B 3E 1F                  611 	ld	a, #0x1f
      00025D 18 3D                  612 	jr	00140$
                                    613 ;utils/tools.c:153: case 'V':
      00025F                        614 00123$:
                                    615 ;utils/tools.c:154: return V;
      00025F 3E 20                  616 	ld	a, #0x20
      000261 18 39                  617 	jr	00140$
                                    618 ;utils/tools.c:155: case 'W':
      000263                        619 00124$:
                                    620 ;utils/tools.c:156: return W;
      000263 3E 21                  621 	ld	a, #0x21
      000265 18 35                  622 	jr	00140$
                                    623 ;utils/tools.c:157: case 'X':
      000267                        624 00125$:
                                    625 ;utils/tools.c:158: return X;
      000267 3E 22                  626 	ld	a, #0x22
      000269 18 31                  627 	jr	00140$
                                    628 ;utils/tools.c:159: case 'Y':
      00026B                        629 00126$:
                                    630 ;utils/tools.c:160: return Y;
      00026B 3E 23                  631 	ld	a, #0x23
      00026D 18 2D                  632 	jr	00140$
                                    633 ;utils/tools.c:161: case 'Z':
      00026F                        634 00127$:
                                    635 ;utils/tools.c:162: return Z;
      00026F 3E 24                  636 	ld	a, #0x24
      000271 18 29                  637 	jr	00140$
                                    638 ;utils/tools.c:163: case '0':
      000273                        639 00128$:
                                    640 ;utils/tools.c:164: return ZERO;
      000273 3E 01                  641 	ld	a, #0x01
      000275 18 25                  642 	jr	00140$
                                    643 ;utils/tools.c:165: case '1':
      000277                        644 00129$:
                                    645 ;utils/tools.c:166: return ONE;
      000277 3E 02                  646 	ld	a, #0x02
      000279 18 21                  647 	jr	00140$
                                    648 ;utils/tools.c:167: case '2':
      00027B                        649 00130$:
                                    650 ;utils/tools.c:168: return TWO;
      00027B 3E 03                  651 	ld	a, #0x03
      00027D 18 1D                  652 	jr	00140$
                                    653 ;utils/tools.c:169: case '3':
      00027F                        654 00131$:
                                    655 ;utils/tools.c:170: return THREE;
      00027F 3E 04                  656 	ld	a, #0x04
      000281 18 19                  657 	jr	00140$
                                    658 ;utils/tools.c:171: case '4':
      000283                        659 00132$:
                                    660 ;utils/tools.c:172: return FOUR;
      000283 3E 05                  661 	ld	a, #0x05
      000285 18 15                  662 	jr	00140$
                                    663 ;utils/tools.c:173: case '5':
      000287                        664 00133$:
                                    665 ;utils/tools.c:174: return FIVE;
      000287 3E 06                  666 	ld	a, #0x06
      000289 18 11                  667 	jr	00140$
                                    668 ;utils/tools.c:175: case '6':
      00028B                        669 00134$:
                                    670 ;utils/tools.c:176: return SIX;
      00028B 3E 07                  671 	ld	a, #0x07
      00028D 18 0D                  672 	jr	00140$
                                    673 ;utils/tools.c:177: case '7':
      00028F                        674 00135$:
                                    675 ;utils/tools.c:178: return SEVEN;
      00028F 3E 08                  676 	ld	a, #0x08
      000291 18 09                  677 	jr	00140$
                                    678 ;utils/tools.c:179: case '8':
      000293                        679 00136$:
                                    680 ;utils/tools.c:180: return EIGHT;
      000293 3E 09                  681 	ld	a, #0x09
      000295 18 05                  682 	jr	00140$
                                    683 ;utils/tools.c:181: case '9':
      000297                        684 00137$:
                                    685 ;utils/tools.c:182: return NINE;
      000297 3E 0A                  686 	ld	a, #0x0a
      000299 18 01                  687 	jr	00140$
                                    688 ;utils/tools.c:183: default:
      00029B                        689 00138$:
                                    690 ;utils/tools.c:184: return 0x00;
      00029B AF                     691 	xor	a, a
                                    692 ;utils/tools.c:215: win_map[i] = transform_text(text[i]);
      00029C                        693 00140$:
      00029C F8 06                  694 	ldhl	sp,	#6
      00029E F5                     695 	push	af
      00029F 2A                     696 	ld	a,	(hl+)
      0002A0 66                     697 	ld	h, (hl)
      0002A1 6F                     698 	ld	l, a
      0002A2 F1                     699 	pop	af
      0002A3 77                     700 	ld	(hl), a
                                    701 ;utils/tools.c:213: for(int i = 0; i < w * h; ++i)
      0002A4 03                     702 	inc	bc
      0002A5 C3r23r01               703 	jp	00142$
      0002A8                        704 00101$:
                                    705 ;utils/tools.c:218: set_win_tiles(x, y, w, h, win_map);
      0002A8 F8 0E                  706 	ldhl	sp,	#14
      0002AA 4E                     707 	ld	c, (hl)
      0002AB F8 00                  708 	ldhl	sp,	#0
      0002AD 46                     709 	ld	b, (hl)
      0002AE F8 0C                  710 	ldhl	sp,	#12
      0002B0 3A                     711 	ld	a, (hl-)
      0002B1 2B                     712 	dec	hl
      0002B2 5F                     713 	ld	e, a
      0002B3 56                     714 	ld	d, (hl)
      0002B4 F8 04                  715 	ldhl	sp,	#4
      0002B6 2A                     716 	ld	a, (hl+)
      0002B7 66                     717 	ld	h, (hl)
                                    718 ;	spillPairReg hl
                                    719 ;	spillPairReg hl
      0002B8 6F                     720 	ld	l, a
                                    721 ;	spillPairReg hl
                                    722 ;	spillPairReg hl
      0002B9 E5                     723 	push	hl
      0002BA 79                     724 	ld	a, c
      0002BB F5                     725 	push	af
      0002BC 33                     726 	inc	sp
      0002BD 4B                     727 	ld	c, e
      0002BE C5                     728 	push	bc
      0002BF D5                     729 	push	de
      0002C0 33                     730 	inc	sp
      0002C1 CDr00r00               731 	call	_set_win_tiles
      0002C4 E8 06                  732 	add	sp, #6
                                    733 ;utils/tools.c:220: free(win_map);
      0002C6 F8 04                  734 	ldhl	sp,	#4
      0002C8 2A                     735 	ld	a, (hl+)
      0002C9 4F                     736 	ld	c, a
      0002CA 46                     737 	ld	b, (hl)
      0002CB C5                     738 	push	bc
      0002CC CDr00r00               739 	call	_free
      0002CF E1                     740 	pop	hl
                                    741 ;utils/tools.c:222: }
      0002D0 E8 08                  742 	add	sp, #8
      0002D2 C9                     743 	ret
                                    744 ;utils/tools.c:241: void initGame() {
                                    745 ;	---------------------------------
                                    746 ; Function initGame
                                    747 ; ---------------------------------
      0002D3                        748 _initGame::
                                    749 ;utils/tools.c:249: DISPLAY_ON;
      0002D3 F0r00                  750 	ldh	a, (_LCDC_REG + 0)
      0002D5 F6 80                  751 	or	a, #0x80
      0002D7 E0r00                  752 	ldh	(_LCDC_REG + 0), a
                                    753 ;utils/tools.c:251: printf("\n\n\n\n\n\n\n      PRESS START!\n");
      0002D9 11r05r03               754 	ld	de, #___str_2
      0002DC D5                     755 	push	de
      0002DD CDr00r00               756 	call	_puts
      0002E0 E1                     757 	pop	hl
                                    758 ;utils/tools.c:252: waitpad(J_START);
      0002E1 3E 80                  759 	ld	a, #0x80
      0002E3 F5                     760 	push	af
      0002E4 33                     761 	inc	sp
      0002E5 CDr00r00               762 	call	_waitpad
      0002E8 33                     763 	inc	sp
                                    764 ;utils/tools.c:233: uint16_t seed = LY_REG;
      0002E9 F0r00                  765 	ldh	a, (_LY_REG + 0)
      0002EB 4F                     766 	ld	c, a
      0002EC 06 00                  767 	ld	b, #0x00
                                    768 ;utils/tools.c:234: seed |= (uint16_t)DIV_REG << 8;
      0002EE F0r00                  769 	ldh	a, (_DIV_REG + 0)
      0002F0 5F                     770 	ld	e, a
      0002F1 AF                     771 	xor	a, a
      0002F2 B1                     772 	or	a, c
      0002F3 4F                     773 	ld	c, a
      0002F4 7B                     774 	ld	a, e
      0002F5 B0                     775 	or	a, b
      0002F6 47                     776 	ld	b, a
                                    777 ;utils/tools.c:235: initrand(seed);
      0002F7 C5                     778 	push	bc
      0002F8 CDr00r00               779 	call	_initrand
      0002FB E1                     780 	pop	hl
                                    781 ;utils/tools.c:254: printf("\n\n\n\n\n\n\n\n\n\n\n\n\n\n\n\n\n\n\n");
      0002FC 11r1Fr03               782 	ld	de, #___str_4
      0002FF D5                     783 	push	de
      000300 CDr00r00               784 	call	_puts
      000303 E1                     785 	pop	hl
                                    786 ;utils/tools.c:255: }
      000304 C9                     787 	ret
      000305                        788 ___str_2:
      000305 0A                     789 	.db 0x0a
      000306 0A                     790 	.db 0x0a
      000307 0A                     791 	.db 0x0a
      000308 0A                     792 	.db 0x0a
      000309 0A                     793 	.db 0x0a
      00030A 0A                     794 	.db 0x0a
      00030B 0A                     795 	.db 0x0a
      00030C 20 20 20 20 20 20 50   796 	.ascii "      PRESS START!"
             52 45 53 53 20 53 54
             41 52 54 21
      00031E 00                     797 	.db 0x00
      00031F                        798 ___str_4:
      00031F 0A                     799 	.db 0x0a
      000320 0A                     800 	.db 0x0a
      000321 0A                     801 	.db 0x0a
      000322 0A                     802 	.db 0x0a
      000323 0A                     803 	.db 0x0a
      000324 0A                     804 	.db 0x0a
      000325 0A                     805 	.db 0x0a
      000326 0A                     806 	.db 0x0a
      000327 0A                     807 	.db 0x0a
      000328 0A                     808 	.db 0x0a
      000329 0A                     809 	.db 0x0a
      00032A 0A                     810 	.db 0x0a
      00032B 0A                     811 	.db 0x0a
      00032C 0A                     812 	.db 0x0a
      00032D 0A                     813 	.db 0x0a
      00032E 0A                     814 	.db 0x0a
      00032F 0A                     815 	.db 0x0a
      000330 0A                     816 	.db 0x0a
      000331 00                     817 	.db 0x00
                                    818 ;utils/Sound/sound.c:4: void sound_init() {
                                    819 ;	---------------------------------
                                    820 ; Function sound_init
                                    821 ; ---------------------------------
      000332                        822 _sound_init::
                                    823 ;utils/Sound/sound.c:6: NR52_REG = 0x80;                //  Turns on sound
      000332 3E 80                  824 	ld	a, #0x80
      000334 E0r00                  825 	ldh	(_NR52_REG + 0), a
                                    826 ;utils/Sound/sound.c:7: NR50_REG = 0x77;                //  Sets the volume to max
      000336 3E 77                  827 	ld	a, #0x77
      000338 E0r00                  828 	ldh	(_NR50_REG + 0), a
                                    829 ;utils/Sound/sound.c:8: NR51_REG = 0xFF;                
      00033A 3E FF                  830 	ld	a, #0xff
      00033C E0r00                  831 	ldh	(_NR51_REG + 0), a
                                    832 ;utils/Sound/sound.c:9: }
      00033E C9                     833 	ret
                                    834 ;utils/Sound/sound.c:11: void play_jumpy_sound() {
                                    835 ;	---------------------------------
                                    836 ; Function play_jumpy_sound
                                    837 ; ---------------------------------
      00033F                        838 _play_jumpy_sound::
                                    839 ;utils/Sound/sound.c:20: NR10_REG = 0x06;
      00033F 3E 06                  840 	ld	a, #0x06
      000341 E0r00                  841 	ldh	(_NR10_REG + 0), a
                                    842 ;utils/Sound/sound.c:28: NR11_REG = 0x88;
      000343 3E 88                  843 	ld	a, #0x88
      000345 E0r00                  844 	ldh	(_NR11_REG + 0), a
                                    845 ;utils/Sound/sound.c:38: NR12_REG = 0x73;
      000347 3E 73                  846 	ld	a, #0x73
      000349 E0r00                  847 	ldh	(_NR12_REG + 0), a
                                    848 ;utils/Sound/sound.c:44: NR13_REG = 0x01;
      00034B 3E 01                  849 	ld	a, #0x01
      00034D E0r00                  850 	ldh	(_NR13_REG + 0), a
                                    851 ;utils/Sound/sound.c:54: NR14_REG = 0xC7;
      00034F 3E C7                  852 	ld	a, #0xc7
      000351 E0r00                  853 	ldh	(_NR14_REG + 0), a
                                    854 ;utils/Sound/sound.c:57: }
      000353 C9                     855 	ret
                                    856 ;utils/Sound/sound.c:59: void play_score()
                                    857 ;	---------------------------------
                                    858 ; Function play_score
                                    859 ; ---------------------------------
      000354                        860 _play_score::
                                    861 ;utils/Sound/sound.c:69: NR10_REG = 0x06;
      000354 3E 06                  862 	ld	a, #0x06
      000356 E0r00                  863 	ldh	(_NR10_REG + 0), a
                                    864 ;utils/Sound/sound.c:77: NR11_REG = 0x88;
      000358 3E 88                  865 	ld	a, #0x88
      00035A E0r00                  866 	ldh	(_NR11_REG + 0), a
                                    867 ;utils/Sound/sound.c:87: NR12_REG = 0x73;
      00035C 3E 73                  868 	ld	a, #0x73
      00035E E0r00                  869 	ldh	(_NR12_REG + 0), a
                                    870 ;utils/Sound/sound.c:93: NR13_REG = 0x01;
      000360 3E 01                  871 	ld	a, #0x01
      000362 E0r00                  872 	ldh	(_NR13_REG + 0), a
                                    873 ;utils/Sound/sound.c:103: NR14_REG = 0xC3;
      000364 3E C3                  874 	ld	a, #0xc3
      000366 E0r00                  875 	ldh	(_NR14_REG + 0), a
                                    876 ;utils/Sound/sound.c:108: }
      000368 C9                     877 	ret
                                    878 ;main.c:49: void flashy_start(uint8_t frames)
                                    879 ;	---------------------------------
                                    880 ; Function flashy_start
                                    881 ; ---------------------------------
      000369                        882 _flashy_start::
      000369 3B                     883 	dec	sp
                                    884 ;main.c:51: for(uint8_t i = 0; i < frames; ++i)
      00036A F8 00                  885 	ldhl	sp,	#0
      00036C 36 00                  886 	ld	(hl), #0x00
      00036E                        887 00113$:
      00036E F8 00                  888 	ldhl	sp,	#0
      000370 7E                     889 	ld	a, (hl)
      000371 F8 03                  890 	ldhl	sp,	#3
      000373 96                     891 	sub	a, (hl)
      000374 30 49                  892 	jr	NC, 00115$
                                    893 ;main.c:53: set_bkg_tiles(5, 12, 11, 1, pressStartMap);
      000376 11rCFr00               894 	ld	de, #_pressStartMap
      000379 D5                     895 	push	de
      00037A 21 0B 01               896 	ld	hl, #0x10b
      00037D E5                     897 	push	hl
      00037E 21 05 0C               898 	ld	hl, #0xc05
      000381 E5                     899 	push	hl
      000382 CDr00r00               900 	call	_set_bkg_tiles
      000385 E8 06                  901 	add	sp, #6
                                    902 ;main.c:52: {
      000387 01 00 00               903 	ld	bc, #0x0000
      00038A                        904 00107$:
      00038A 79                     905 	ld	a, c
      00038B D6 03                  906 	sub	a, #0x03
      00038D 78                     907 	ld	a, b
      00038E DE 00                  908 	sbc	a, #0x00
      000390 30 06                  909 	jr	NC, 00103$
                                    910 ;utils/tools.c:53: wait_vbl_done();
      000392 CDr00r00               911 	call	_wait_vbl_done
                                    912 ;utils/tools.c:52: for(i = 0; i < loops; i++){
      000395 03                     913 	inc	bc
      000396 18 F2                  914 	jr	00107$
                                    915 ;main.c:54: performanceDelay(3);
      000398                        916 00103$:
                                    917 ;main.c:55: set_bkg_tiles(5, 12, 11, 1, clear_map);
      000398 11rDAr00               918 	ld	de, #_clear_map
      00039B D5                     919 	push	de
      00039C 21 0B 01               920 	ld	hl, #0x10b
      00039F E5                     921 	push	hl
      0003A0 21 05 0C               922 	ld	hl, #0xc05
      0003A3 E5                     923 	push	hl
      0003A4 CDr00r00               924 	call	_set_bkg_tiles
      0003A7 E8 06                  925 	add	sp, #6
                                    926 ;main.c:52: {
      0003A9 01 00 00               927 	ld	bc, #0x0000
      0003AC                        928 00110$:
      0003AC 79                     929 	ld	a, c
      0003AD D6 03                  930 	sub	a, #0x03
      0003AF 78                     931 	ld	a, b
      0003B0 DE 00                  932 	sbc	a, #0x00
      0003B2 30 06                  933 	jr	NC, 00105$
                                    934 ;utils/tools.c:53: wait_vbl_done();
      0003B4 CDr00r00               935 	call	_wait_vbl_done
                                    936 ;utils/tools.c:52: for(i = 0; i < loops; i++){
      0003B7 03                     937 	inc	bc
      0003B8 18 F2                  938 	jr	00110$
                                    939 ;main.c:56: performanceDelay(3);
      0003BA                        940 00105$:
                                    941 ;main.c:51: for(uint8_t i = 0; i < frames; ++i)
      0003BA F8 00                  942 	ldhl	sp,	#0
      0003BC 34                     943 	inc	(hl)
      0003BD 18 AF                  944 	jr	00113$
      0003BF                        945 00115$:
                                    946 ;main.c:59: }
      0003BF 33                     947 	inc	sp
      0003C0 C9                     948 	ret
      0003C1                        949 _TileLabel:
      0003C1 00                     950 	.db #0x00	; 0
      0003C2 00                     951 	.db #0x00	; 0
      0003C3 00                     952 	.db #0x00	; 0
      0003C4 00                     953 	.db #0x00	; 0
      0003C5 00                     954 	.db #0x00	; 0
      0003C6 00                     955 	.db #0x00	; 0
      0003C7 00                     956 	.db #0x00	; 0
      0003C8 00                     957 	.db #0x00	; 0
      0003C9 00                     958 	.db #0x00	; 0
      0003CA 00                     959 	.db #0x00	; 0
      0003CB 00                     960 	.db #0x00	; 0
      0003CC 00                     961 	.db #0x00	; 0
      0003CD 00                     962 	.db #0x00	; 0
      0003CE 00                     963 	.db #0x00	; 0
      0003CF 00                     964 	.db #0x00	; 0
      0003D0 00                     965 	.db #0x00	; 0
      0003D1 F9                     966 	.db #0xf9	; 249
      0003D2 00                     967 	.db #0x00	; 0
      0003D3 FD                     968 	.db #0xfd	; 253
      0003D4 00                     969 	.db #0x00	; 0
      0003D5 CD                     970 	.db #0xcd	; 205
      0003D6 00                     971 	.db #0x00	; 0
      0003D7 F9                     972 	.db #0xf9	; 249
      0003D8 00                     973 	.db #0x00	; 0
      0003D9 CD                     974 	.db #0xcd	; 205
      0003DA 00                     975 	.db #0x00	; 0
      0003DB FD                     976 	.db #0xfd	; 253
      0003DC 00                     977 	.db #0x00	; 0
      0003DD 00                     978 	.db #0x00	; 0
      0003DE F8                     979 	.db #0xf8	; 248
      0003DF 00                     980 	.db #0x00	; 0
      0003E0 00                     981 	.db #0x00	; 0
      0003E1 99                     982 	.db #0x99	; 153
      0003E2 00                     983 	.db #0x00	; 0
      0003E3 9B                     984 	.db #0x9b	; 155
      0003E4 00                     985 	.db #0x00	; 0
      0003E5 9B                     986 	.db #0x9b	; 155
      0003E6 00                     987 	.db #0x00	; 0
      0003E7 9B                     988 	.db #0x9b	; 155
      0003E8 00                     989 	.db #0x00	; 0
      0003E9 9B                     990 	.db #0x9b	; 155
      0003EA 00                     991 	.db #0x00	; 0
      0003EB FB                     992 	.db #0xfb	; 251
      0003EC 00                     993 	.db #0x00	; 0
      0003ED 00                     994 	.db #0x00	; 0
      0003EE F1                     995 	.db #0xf1	; 241
      0003EF 00                     996 	.db #0x00	; 0
      0003F0 00                     997 	.db #0x00	; 0
      0003F1 F3                     998 	.db #0xf3	; 243
      0003F2 00                     999 	.db #0x00	; 0
      0003F3 F7                    1000 	.db #0xf7	; 247
      0003F4 00                    1001 	.db #0x00	; 0
      0003F5 06                    1002 	.db #0x06	; 6
      0003F6 00                    1003 	.db #0x00	; 0
      0003F7 76                    1004 	.db #0x76	; 118	'v'
      0003F8 00                    1005 	.db #0x00	; 0
      0003F9 36                    1006 	.db #0x36	; 54	'6'
      0003FA 00                    1007 	.db #0x00	; 0
      0003FB F7                    1008 	.db #0xf7	; 247
      0003FC 00                    1009 	.db #0x00	; 0
      0003FD 00                    1010 	.db #0x00	; 0
      0003FE F3                    1011 	.db #0xf3	; 243
      0003FF 00                    1012 	.db #0x00	; 0
      000400 00                    1013 	.db #0x00	; 0
      000401 EC                    1014 	.db #0xec	; 236
      000402 00                    1015 	.db #0x00	; 0
      000403 EC                    1016 	.db #0xec	; 236
      000404 00                    1017 	.db #0x00	; 0
      000405 07                    1018 	.db #0x07	; 7
      000406 00                    1019 	.db #0x00	; 0
      000407 E3                    1020 	.db #0xe3	; 227
      000408 00                    1021 	.db #0x00	; 0
      000409 63                    1022 	.db #0x63	; 99	'c'
      00040A 00                    1023 	.db #0x00	; 0
      00040B E3                    1024 	.db #0xe3	; 227
      00040C 00                    1025 	.db #0x00	; 0
      00040D 00                    1026 	.db #0x00	; 0
      00040E E3                    1027 	.db #0xe3	; 227
      00040F 00                    1028 	.db #0x00	; 0
      000410 00                    1029 	.db #0x00	; 0
      000411 C0                    1030 	.db #0xc0	; 192
      000412 00                    1031 	.db #0x00	; 0
      000413 C0                    1032 	.db #0xc0	; 192
      000414 00                    1033 	.db #0x00	; 0
      000415 80                    1034 	.db #0x80	; 128
      000416 00                    1035 	.db #0x00	; 0
      000417 00                    1036 	.db #0x00	; 0
      000418 00                    1037 	.db #0x00	; 0
      000419 00                    1038 	.db #0x00	; 0
      00041A 00                    1039 	.db #0x00	; 0
      00041B 00                    1040 	.db #0x00	; 0
      00041C 00                    1041 	.db #0x00	; 0
      00041D 00                    1042 	.db #0x00	; 0
      00041E 00                    1043 	.db #0x00	; 0
      00041F 00                    1044 	.db #0x00	; 0
      000420 00                    1045 	.db #0x00	; 0
      000421 00                    1046 	.db #0x00	; 0
      000422 00                    1047 	.db #0x00	; 0
      000423 00                    1048 	.db #0x00	; 0
      000424 00                    1049 	.db #0x00	; 0
      000425 07                    1050 	.db #0x07	; 7
      000426 00                    1051 	.db #0x00	; 0
      000427 07                    1052 	.db #0x07	; 7
      000428 00                    1053 	.db #0x00	; 0
      000429 06                    1054 	.db #0x06	; 6
      00042A 00                    1055 	.db #0x00	; 0
      00042B 07                    1056 	.db #0x07	; 7
      00042C 00                    1057 	.db #0x00	; 0
      00042D 07                    1058 	.db #0x07	; 7
      00042E 00                    1059 	.db #0x00	; 0
      00042F 06                    1060 	.db #0x06	; 6
      000430 00                    1061 	.db #0x00	; 0
      000431 00                    1062 	.db #0x00	; 0
      000432 00                    1063 	.db #0x00	; 0
      000433 00                    1064 	.db #0x00	; 0
      000434 00                    1065 	.db #0x00	; 0
      000435 C7                    1066 	.db #0xc7	; 199
      000436 00                    1067 	.db #0x00	; 0
      000437 EF                    1068 	.db #0xef	; 239
      000438 00                    1069 	.db #0x00	; 0
      000439 6C                    1070 	.db #0x6c	; 108	'l'
      00043A 00                    1071 	.db #0x00	; 0
      00043B EC                    1072 	.db #0xec	; 236
      00043C 00                    1073 	.db #0x00	; 0
      00043D CC                    1074 	.db #0xcc	; 204
      00043E 00                    1075 	.db #0x00	; 0
      00043F 0F                    1076 	.db #0x0f	; 15
      000440 00                    1077 	.db #0x00	; 0
      000441 00                    1078 	.db #0x00	; 0
      000442 00                    1079 	.db #0x00	; 0
      000443 00                    1080 	.db #0x00	; 0
      000444 00                    1081 	.db #0x00	; 0
      000445 99                    1082 	.db #0x99	; 153
      000446 00                    1083 	.db #0x00	; 0
      000447 D9                    1084 	.db #0xd9	; 217
      000448 00                    1085 	.db #0x00	; 0
      000449 DD                    1086 	.db #0xdd	; 221
      00044A 00                    1087 	.db #0x00	; 0
      00044B DF                    1088 	.db #0xdf	; 223
      00044C 00                    1089 	.db #0x00	; 0
      00044D DB                    1090 	.db #0xdb	; 219
      00044E 00                    1091 	.db #0x00	; 0
      00044F D9                    1092 	.db #0xd9	; 217
      000450 00                    1093 	.db #0x00	; 0
      000451 00                    1094 	.db #0x00	; 0
      000452 00                    1095 	.db #0x00	; 0
      000453 00                    1096 	.db #0x00	; 0
      000454 00                    1097 	.db #0x00	; 0
      000455 9F                    1098 	.db #0x9f	; 159
      000456 00                    1099 	.db #0x00	; 0
      000457 BF                    1100 	.db #0xbf	; 191
      000458 00                    1101 	.db #0x00	; 0
      000459 B0                    1102 	.db #0xb0	; 176
      00045A 00                    1103 	.db #0x00	; 0
      00045B B7                    1104 	.db #0xb7	; 183
      00045C 00                    1105 	.db #0x00	; 0
      00045D B3                    1106 	.db #0xb3	; 179
      00045E 00                    1107 	.db #0x00	; 0
      00045F BF                    1108 	.db #0xbf	; 191
      000460 00                    1109 	.db #0x00	; 0
      000461 00                    1110 	.db #0x00	; 0
      000462 06                    1111 	.db #0x06	; 6
      000463 00                    1112 	.db #0x00	; 0
      000464 00                    1113 	.db #0x00	; 0
      000465 00                    1114 	.db #0x00	; 0
      000466 00                    1115 	.db #0x00	; 0
      000467 00                    1116 	.db #0x00	; 0
      000468 00                    1117 	.db #0x00	; 0
      000469 00                    1118 	.db #0x00	; 0
      00046A 00                    1119 	.db #0x00	; 0
      00046B 00                    1120 	.db #0x00	; 0
      00046C 00                    1121 	.db #0x00	; 0
      00046D 00                    1122 	.db #0x00	; 0
      00046E 00                    1123 	.db #0x00	; 0
      00046F 00                    1124 	.db #0x00	; 0
      000470 00                    1125 	.db #0x00	; 0
      000471 00                    1126 	.db #0x00	; 0
      000472 07                    1127 	.db #0x07	; 7
      000473 00                    1128 	.db #0x00	; 0
      000474 00                    1129 	.db #0x00	; 0
      000475 00                    1130 	.db #0x00	; 0
      000476 00                    1131 	.db #0x00	; 0
      000477 00                    1132 	.db #0x00	; 0
      000478 00                    1133 	.db #0x00	; 0
      000479 00                    1134 	.db #0x00	; 0
      00047A 00                    1135 	.db #0x00	; 0
      00047B 00                    1136 	.db #0x00	; 0
      00047C 00                    1137 	.db #0x00	; 0
      00047D 00                    1138 	.db #0x00	; 0
      00047E 00                    1139 	.db #0x00	; 0
      00047F 00                    1140 	.db #0x00	; 0
      000480 00                    1141 	.db #0x00	; 0
      000481 00                    1142 	.db #0x00	; 0
      000482 99                    1143 	.db #0x99	; 153
      000483 00                    1144 	.db #0x00	; 0
      000484 00                    1145 	.db #0x00	; 0
      000485 00                    1146 	.db #0x00	; 0
      000486 00                    1147 	.db #0x00	; 0
      000487 00                    1148 	.db #0x00	; 0
      000488 00                    1149 	.db #0x00	; 0
      000489 00                    1150 	.db #0x00	; 0
      00048A 00                    1151 	.db #0x00	; 0
      00048B 00                    1152 	.db #0x00	; 0
      00048C 00                    1153 	.db #0x00	; 0
      00048D 00                    1154 	.db #0x00	; 0
      00048E 00                    1155 	.db #0x00	; 0
      00048F 00                    1156 	.db #0x00	; 0
      000490 00                    1157 	.db #0x00	; 0
      000491 00                    1158 	.db #0x00	; 0
      000492 9F                    1159 	.db #0x9f	; 159
      000493 00                    1160 	.db #0x00	; 0
      000494 00                    1161 	.db #0x00	; 0
      000495 00                    1162 	.db #0x00	; 0
      000496 00                    1163 	.db #0x00	; 0
      000497 00                    1164 	.db #0x00	; 0
      000498 00                    1165 	.db #0x00	; 0
      000499 00                    1166 	.db #0x00	; 0
      00049A 00                    1167 	.db #0x00	; 0
      00049B 00                    1168 	.db #0x00	; 0
      00049C 00                    1169 	.db #0x00	; 0
      00049D 00                    1170 	.db #0x00	; 0
      00049E 00                    1171 	.db #0x00	; 0
      00049F 00                    1172 	.db #0x00	; 0
      0004A0 00                    1173 	.db #0x00	; 0
      0004A1                       1174 _top:
      0004A1 00                    1175 	.db #0x00	; 0
      0004A2                       1176 _mid:
      0004A2 01                    1177 	.db #0x01	; 1
      0004A3                       1178 _low:
      0004A3 02                    1179 	.db #0x02	; 2
      0004A4                       1180 _ball:
      0004A4 03                    1181 	.db #0x03	; 3
                                   1182 ;main.c:61: void init_min_font()
                                   1183 ;	---------------------------------
                                   1184 ; Function init_min_font
                                   1185 ; ---------------------------------
      0004A5                       1186 _init_min_font::
                                   1187 ;main.c:67: font_init();
      0004A5 CDr00r00              1188 	call	_font_init
                                   1189 ;main.c:68: min_font = font_load(font_min);
      0004A8 11r00r00              1190 	ld	de, #_font_min
      0004AB D5                    1191 	push	de
      0004AC CDr00r00              1192 	call	_font_load
      0004AF E1                    1193 	pop	hl
                                   1194 ;main.c:70: font_set(min_font);
      0004B0 D5                    1195 	push	de
      0004B1 CDr00r00              1196 	call	_font_set
      0004B4 E1                    1197 	pop	hl
                                   1198 ;main.c:77: }
      0004B5 C9                    1199 	ret
                                   1200 ;main.c:82: void init_map()
                                   1201 ;	---------------------------------
                                   1202 ; Function init_map
                                   1203 ; ---------------------------------
      0004B6                       1204 _init_map::
                                   1205 ;main.c:86: get_bkg_data(0, 14, TileLabel);   //  Ignores the 'air' tile
      0004B6 01rC1r03              1206 	ld	bc, #_TileLabel+0
      0004B9 C5                    1207 	push	bc
      0004BA 21 00 0E              1208 	ld	hl, #0xe00
      0004BD E5                    1209 	push	hl
      0004BE CDr00r00              1210 	call	_get_bkg_data
      0004C1 E8 04                 1211 	add	sp, #4
                                   1212 ;main.c:87: set_bkg_data(MAP_START, 14, TileLabel);
      0004C3 C5                    1213 	push	bc
      0004C4 21 25 0E              1214 	ld	hl, #0xe25
      0004C7 E5                    1215 	push	hl
      0004C8 CDr00r00              1216 	call	_set_bkg_data
      0004CB E8 04                 1217 	add	sp, #4
                                   1218 ;main.c:88: set_bkg_tiles(3, 0, 20, 18, screenTitleMap);
      0004CD 11r68r01              1219 	ld	de, #_screenTitleMap
      0004D0 D5                    1220 	push	de
      0004D1 21 14 12              1221 	ld	hl, #0x1214
      0004D4 E5                    1222 	push	hl
      0004D5 21 03 00              1223 	ld	hl, #0x03
      0004D8 E5                    1224 	push	hl
      0004D9 CDr00r00              1225 	call	_set_bkg_tiles
      0004DC E8 06                 1226 	add	sp, #6
                                   1227 ;main.c:90: set_bkg_tiles(5, 12, 11, 1, pressStartMap);
      0004DE 11rCFr00              1228 	ld	de, #_pressStartMap
      0004E1 D5                    1229 	push	de
      0004E2 21 0B 01              1230 	ld	hl, #0x10b
      0004E5 E5                    1231 	push	hl
      0004E6 21 05 0C              1232 	ld	hl, #0xc05
      0004E9 E5                    1233 	push	hl
      0004EA CDr00r00              1234 	call	_set_bkg_tiles
      0004ED E8 06                 1235 	add	sp, #6
                                   1236 ;main.c:92: SHOW_BKG;
      0004EF F0r00                 1237 	ldh	a, (_LCDC_REG + 0)
      0004F1 F6 01                 1238 	or	a, #0x01
      0004F3 E0r00                 1239 	ldh	(_LCDC_REG + 0), a
                                   1240 ;main.c:98: }
      0004F5 C9                    1241 	ret
                                   1242 ;main.c:101: void start_game()
                                   1243 ;	---------------------------------
                                   1244 ; Function start_game
                                   1245 ; ---------------------------------
      0004F6                       1246 _start_game::
                                   1247 ;main.c:103: DISPLAY_ON;
      0004F6 F0r00                 1248 	ldh	a, (_LCDC_REG + 0)
      0004F8 F6 80                 1249 	or	a, #0x80
      0004FA E0r00                 1250 	ldh	(_LCDC_REG + 0), a
                                   1251 ;main.c:105: init_min_font();
      0004FC CDrA5r04              1252 	call	_init_min_font
                                   1253 ;main.c:106: sound_init();
      0004FF CDr32r03              1254 	call	_sound_init
                                   1255 ;main.c:108: init_map();
      000502 CDrB6r04              1256 	call	_init_map
                                   1257 ;main.c:110: waitpad(J_START);
      000505 3E 80                 1258 	ld	a, #0x80
      000507 F5                    1259 	push	af
      000508 33                    1260 	inc	sp
      000509 CDr00r00              1261 	call	_waitpad
      00050C 33                    1262 	inc	sp
                                   1263 ;main.c:112: flashy_start(5);
      00050D 3E 05                 1264 	ld	a, #0x05
      00050F F5                    1265 	push	af
      000510 33                    1266 	inc	sp
      000511 CDr69r03              1267 	call	_flashy_start
      000514 33                    1268 	inc	sp
                                   1269 ;main.c:113: gamePaused = 0;
      000515 21rD0r02              1270 	ld	hl, #_gamePaused
      000518 36 00                 1271 	ld	(hl), #0x00
                                   1272 ;main.c:115: HIDE_BKG;
      00051A F0r00                 1273 	ldh	a, (_LCDC_REG + 0)
      00051C E6 FE                 1274 	and	a, #0xfe
      00051E E0r00                 1275 	ldh	(_LCDC_REG + 0), a
                                   1276 ;main.c:118: }
      000520 C9                    1277 	ret
                                   1278 ;main.c:124: void moveCharacter(Character* charac, uint8 x, uint8 y)
                                   1279 ;	---------------------------------
                                   1280 ; Function moveCharacter
                                   1281 ; ---------------------------------
      000521                       1282 _moveCharacter::
      000521 E8 FA                 1283 	add	sp, #-6
                                   1284 ;main.c:126: move_sprite(charac->spriteids[0], x, y);
      000523 F8 0C                 1285 	ldhl	sp,	#12
      000525 7E                    1286 	ld	a, (hl)
      000526 F8 00                 1287 	ldhl	sp,	#0
      000528 77                    1288 	ld	(hl), a
      000529 2A                    1289 	ld	a, (hl+)
      00052A 77                    1290 	ld	(hl), a
      00052B F8 0A                 1291 	ldhl	sp,	#10
      00052D 7E                    1292 	ld	a, (hl)
      00052E F8 02                 1293 	ldhl	sp,	#2
      000530 77                    1294 	ld	(hl), a
      000531 2A                    1295 	ld	a, (hl+)
      000532 77                    1296 	ld	(hl), a
      000533 F8 08                 1297 	ldhl	sp,	#8
      000535 7E                    1298 	ld	a, (hl)
      000536 F8 04                 1299 	ldhl	sp,	#4
      000538 77                    1300 	ld	(hl), a
      000539 F8 09                 1301 	ldhl	sp,	#9
      00053B 7E                    1302 	ld	a, (hl)
      00053C F8 05                 1303 	ldhl	sp,	#5
      00053E 32                    1304 	ld	(hl-), a
      00053F 2A                    1305 	ld	a, (hl+)
      000540 5F                    1306 	ld	e, a
      000541 56                    1307 	ld	d, (hl)
      000542 1A                    1308 	ld	a, (de)
                                   1309 ;c:/gbdk/include/gb/gb.h:1520: OAM_item_t * itm = &shadow_OAM[nb];
      000543 6F                    1310 	ld	l, a
      000544 11r00r00              1311 	ld	de, #_shadow_OAM+0
                                   1312 ;	spillPairReg hl
                                   1313 ;	spillPairReg hl
      000547 26 00                 1314 	ld	h, #0x00
                                   1315 ;	spillPairReg hl
                                   1316 ;	spillPairReg hl
      000549 29                    1317 	add	hl, hl
      00054A 29                    1318 	add	hl, hl
      00054B 19                    1319 	add	hl, de
      00054C 4D                    1320 	ld	c, l
      00054D 44                    1321 	ld	b, h
                                   1322 ;c:/gbdk/include/gb/gb.h:1521: itm->y=y, itm->x=x;
      00054E F8 01                 1323 	ldhl	sp,	#1
      000550 2A                    1324 	ld	a, (hl+)
      000551 23                    1325 	inc	hl
      000552 02                    1326 	ld	(bc), a
      000553 03                    1327 	inc	bc
      000554 7E                    1328 	ld	a, (hl)
      000555 02                    1329 	ld	(bc), a
                                   1330 ;main.c:127: move_sprite(charac->spriteids[1], x, y + SPRITE_HEIGHT);
      000556 F8 00                 1331 	ldhl	sp,	#0
      000558 7E                    1332 	ld	a, (hl)
      000559 C6 08                 1333 	add	a, #0x08
      00055B 4F                    1334 	ld	c, a
      00055C F8 04                 1335 	ldhl	sp,	#4
      00055E 2A                    1336 	ld	a, (hl+)
      00055F 5F                    1337 	ld	e, a
      000560 56                    1338 	ld	d, (hl)
      000561 13                    1339 	inc	de
      000562 13                    1340 	inc	de
      000563 1A                    1341 	ld	a, (de)
                                   1342 ;c:/gbdk/include/gb/gb.h:1520: OAM_item_t * itm = &shadow_OAM[nb];
      000564 6F                    1343 	ld	l, a
      000565 11r00r00              1344 	ld	de, #_shadow_OAM+0
                                   1345 ;	spillPairReg hl
                                   1346 ;	spillPairReg hl
      000568 26 00                 1347 	ld	h, #0x00
                                   1348 ;	spillPairReg hl
                                   1349 ;	spillPairReg hl
      00056A 29                    1350 	add	hl, hl
      00056B 29                    1351 	add	hl, hl
      00056C 19                    1352 	add	hl, de
                                   1353 ;c:/gbdk/include/gb/gb.h:1521: itm->y=y, itm->x=x;
      00056D 79                    1354 	ld	a, c
      00056E 22                    1355 	ld	(hl+), a
      00056F 4D                    1356 	ld	c, l
      000570 44                    1357 	ld	b, h
      000571 F8 02                 1358 	ldhl	sp,	#2
                                   1359 ;main.c:128: move_sprite(charac->spriteids[2], x, y + 2 * SPRITE_HEIGHT);
      000573 3A                    1360 	ld	a, (hl-)
      000574 2B                    1361 	dec	hl
      000575 02                    1362 	ld	(bc), a
      000576 7E                    1363 	ld	a, (hl)
      000577 C6 10                 1364 	add	a, #0x10
      000579 4F                    1365 	ld	c, a
      00057A F8 04                 1366 	ldhl	sp,#4
      00057C 2A                    1367 	ld	a, (hl+)
      00057D 5F                    1368 	ld	e, a
      00057E 56                    1369 	ld	d, (hl)
      00057F 21 04 00              1370 	ld	hl, #0x0004
      000582 19                    1371 	add	hl, de
      000583 5D                    1372 	ld	e, l
      000584 54                    1373 	ld	d, h
      000585 1A                    1374 	ld	a, (de)
                                   1375 ;c:/gbdk/include/gb/gb.h:1520: OAM_item_t * itm = &shadow_OAM[nb];
      000586 6F                    1376 	ld	l, a
      000587 11r00r00              1377 	ld	de, #_shadow_OAM+0
                                   1378 ;	spillPairReg hl
                                   1379 ;	spillPairReg hl
      00058A 26 00                 1380 	ld	h, #0x00
                                   1381 ;	spillPairReg hl
                                   1382 ;	spillPairReg hl
      00058C 29                    1383 	add	hl, hl
      00058D 29                    1384 	add	hl, hl
      00058E 19                    1385 	add	hl, de
                                   1386 ;c:/gbdk/include/gb/gb.h:1521: itm->y=y, itm->x=x;
      00058F 79                    1387 	ld	a, c
      000590 22                    1388 	ld	(hl+), a
      000591 4D                    1389 	ld	c, l
      000592 44                    1390 	ld	b, h
      000593 F8 02                 1391 	ldhl	sp,	#2
      000595 7E                    1392 	ld	a, (hl)
      000596 02                    1393 	ld	(bc), a
                                   1394 ;main.c:128: move_sprite(charac->spriteids[2], x, y + 2 * SPRITE_HEIGHT);
                                   1395 ;main.c:129: }
      000597 E8 06                 1396 	add	sp, #6
      000599 C9                    1397 	ret
                                   1398 ;main.c:134: void init_score()
                                   1399 ;	---------------------------------
                                   1400 ; Function init_score
                                   1401 ; ---------------------------------
      00059A                       1402 _init_score::
                                   1403 ;main.c:136: make_show_win_map(AI_TILE_LOCATION, 1, 1, "0");
      00059A 11rC5r05              1404 	ld	de, #___str_5
      00059D D5                    1405 	push	de
      00059E 11 01 00              1406 	ld	de, #0x0001
      0005A1 D5                    1407 	push	de
      0005A2 D5                    1408 	push	de
      0005A3 11 01 00              1409 	ld	de, #0x0001
      0005A6 D5                    1410 	push	de
      0005A7 CDrEDr00              1411 	call	_make_show_win_map
      0005AA E8 08                 1412 	add	sp, #8
                                   1413 ;main.c:138: make_show_win_map(PLAYER_TILE_LOCATION, 1, 1, "0");
      0005AC 11rC5r05              1414 	ld	de, #___str_5
      0005AF D5                    1415 	push	de
      0005B0 11 01 00              1416 	ld	de, #0x0001
      0005B3 D5                    1417 	push	de
      0005B4 D5                    1418 	push	de
      0005B5 11 11 00              1419 	ld	de, #0x0011
      0005B8 D5                    1420 	push	de
      0005B9 CDrEDr00              1421 	call	_make_show_win_map
      0005BC E8 08                 1422 	add	sp, #8
                                   1423 ;main.c:140: SHOW_WIN;
      0005BE F0r00                 1424 	ldh	a, (_LCDC_REG + 0)
      0005C0 F6 20                 1425 	or	a, #0x20
      0005C2 E0r00                 1426 	ldh	(_LCDC_REG + 0), a
                                   1427 ;main.c:141: }
      0005C4 C9                    1428 	ret
      0005C5                       1429 ___str_5:
      0005C5 30                    1430 	.ascii "0"
      0005C6 00                    1431 	.db 0x00
                                   1432 ;main.c:144: void update_score(uint8 score, uint8_t tile)
                                   1433 ;	---------------------------------
                                   1434 ; Function update_score
                                   1435 ; ---------------------------------
      0005C7                       1436 _update_score::
      0005C7 E8 FB                 1437 	add	sp, #-5
                                   1438 ;main.c:146: clear_portion(tile);
      0005C9 F8 09                 1439 	ldhl	sp,	#9
      0005CB 46                    1440 	ld	b, (hl)
                                   1441 ;utils/tools.c:41: set_win_tiles(x, 1, 8, 1, clear_map);    
      0005CC 11rDAr00              1442 	ld	de, #_clear_map
      0005CF D5                    1443 	push	de
      0005D0 21 08 01              1444 	ld	hl, #0x108
      0005D3 E5                    1445 	push	hl
      0005D4 3E 01                 1446 	ld	a, #0x01
      0005D6 F5                    1447 	push	af
      0005D7 33                    1448 	inc	sp
      0005D8 C5                    1449 	push	bc
      0005D9 33                    1450 	inc	sp
      0005DA CDr00r00              1451 	call	_set_win_tiles
      0005DD E8 06                 1452 	add	sp, #6
                                   1453 ;main.c:150: : tile + number_count_minimal(score), 1, 1, toString(score));
      0005DF C5                    1454 	push	bc
      0005E0 F8 09                 1455 	ldhl	sp,	#9
      0005E2 2A                    1456 	ld	a, (hl+)
      0005E3 5F                    1457 	ld	e, a
      0005E4 56                    1458 	ld	d, (hl)
      0005E5 D5                    1459 	push	de
      0005E6 CDr00r00              1460 	call	_toString
      0005E9 E1                    1461 	pop	hl
      0005EA F8 02                 1462 	ldhl	sp,	#2
      0005EC 7B                    1463 	ld	a, e
      0005ED 22                    1464 	ld	(hl+), a
      0005EE 72                    1465 	ld	(hl), d
      0005EF C1                    1466 	pop	bc
                                   1467 ;main.c:149: ? tile - number_count_minimal(score)
      0005F0 F8 02                 1468 	ldhl	sp,	#2
      0005F2 78                    1469 	ld	a, b
      0005F3 22                    1470 	ld	(hl+), a
      0005F4 36 00                 1471 	ld	(hl), #0x00
      0005F6 F8 07                 1472 	ldhl	sp,	#7
      0005F8 2A                    1473 	ld	a, (hl+)
      0005F9 4F                    1474 	ld	c, a
      0005FA 56                    1475 	ld	d, (hl)
                                   1476 ;utils/tools.c:60: if(score < 10)
      0005FB 79                    1477 	ld	a, c
      0005FC D6 0A                 1478 	sub	a, #0x0a
      0005FE 7A                    1479 	ld	a, d
      0005FF DE 00                 1480 	sbc	a, #0x00
      000601 3E 00                 1481 	ld	a, #0x00
      000603 17                    1482 	rla
                                   1483 ;	spillPairReg hl
                                   1484 ;	spillPairReg hl
                                   1485 ;utils/tools.c:64: else if(score < 100)
      000604 79                    1486 	ld	a, c
      000605 D6 64                 1487 	sub	a, #0x64
      000607 7A                    1488 	ld	a, d
      000608 DE 00                 1489 	sbc	a, #0x00
      00060A 3E 00                 1490 	ld	a, #0x00
      00060C 17                    1491 	rla
      00060D 5F                    1492 	ld	e, a
                                   1493 ;utils/tools.c:68: else if(score < 1000)
      00060E 79                    1494 	ld	a, c
      00060F D6 E8                 1495 	sub	a, #0xe8
      000611 7A                    1496 	ld	a, d
      000612 DE 03                 1497 	sbc	a, #0x03
      000614 3E 00                 1498 	ld	a, #0x00
      000616 17                    1499 	rla
      000617 F8 04                 1500 	ldhl	sp,	#4
      000619 77                    1501 	ld	(hl), a
                                   1502 ;main.c:149: ? tile - number_count_minimal(score)
      00061A 78                    1503 	ld	a, b
                                   1504 ;utils/tools.c:60: if(score < 10)
      00061B D6 11                 1505 	sub	a,#0x11
      00061D 20 29                 1506 	jr	NZ, 00124$
      00061F B5                    1507 	or	a,l
      000620 28 04                 1508 	jr	Z, 00109$
                                   1509 ;utils/tools.c:62: return 0;
      000622 1E 00                 1510 	ld	e, #0x00
      000624 18 12                 1511 	jr	00111$
      000626                       1512 00109$:
                                   1513 ;utils/tools.c:64: else if(score < 100)
      000626 7B                    1514 	ld	a, e
      000627 B7                    1515 	or	a, a
      000628 28 04                 1516 	jr	Z, 00107$
                                   1517 ;utils/tools.c:66: return 1;
      00062A 1E 01                 1518 	ld	e, #0x01
      00062C 18 0A                 1519 	jr	00111$
      00062E                       1520 00107$:
                                   1521 ;utils/tools.c:68: else if(score < 1000)
      00062E F8 04                 1522 	ldhl	sp,	#4
      000630 7E                    1523 	ld	a, (hl)
      000631 B7                    1524 	or	a, a
                                   1525 ;utils/tools.c:70: return 2;
                                   1526 ;utils/tools.c:72: else return 3;
                                   1527 ;main.c:149: ? tile - number_count_minimal(score)
      000632 1E 02                 1528 	ld	e, #0x02
      000634 20 02                 1529 	jr	NZ, 00111$
      000636 1E 03                 1530 	ld	e, #0x03
      000638                       1531 00111$:
      000638 4B                    1532 	ld	c, e
      000639 06 00                 1533 	ld	b, #0x00
      00063B F8 02                 1534 	ldhl	sp,#2
      00063D 2A                    1535 	ld	a, (hl+)
      00063E 5F                    1536 	ld	e, a
      00063F 56                    1537 	ld	d, (hl)
      000640 7B                    1538 	ld	a, e
      000641 91                    1539 	sub	a, c
      000642 5F                    1540 	ld	e, a
      000643 7A                    1541 	ld	a, d
      000644 98                    1542 	sbc	a, b
      000645 4B                    1543 	ld	c, e
      000646 18 24                 1544 	jr	00125$
      000648                       1545 00124$:
                                   1546 ;utils/tools.c:60: if(score < 10)
      000648 7D                    1547 	ld	a, l
      000649 B7                    1548 	or	a, a
      00064A 28 04                 1549 	jr	Z, 00119$
                                   1550 ;utils/tools.c:62: return 0;
      00064C 0E 00                 1551 	ld	c, #0x00
      00064E 18 12                 1552 	jr	00121$
      000650                       1553 00119$:
                                   1554 ;utils/tools.c:64: else if(score < 100)
      000650 7B                    1555 	ld	a, e
      000651 B7                    1556 	or	a, a
      000652 28 04                 1557 	jr	Z, 00117$
                                   1558 ;utils/tools.c:66: return 1;
      000654 0E 01                 1559 	ld	c, #0x01
      000656 18 0A                 1560 	jr	00121$
      000658                       1561 00117$:
                                   1562 ;utils/tools.c:68: else if(score < 1000)
      000658 F8 04                 1563 	ldhl	sp,	#4
      00065A 7E                    1564 	ld	a, (hl)
      00065B B7                    1565 	or	a, a
                                   1566 ;utils/tools.c:70: return 2;
                                   1567 ;utils/tools.c:72: else return 3;
                                   1568 ;main.c:150: : tile + number_count_minimal(score), 1, 1, toString(score));
      00065C 0E 02                 1569 	ld	c, #0x02
      00065E 20 02                 1570 	jr	NZ, 00121$
      000660 0E 03                 1571 	ld	c, #0x03
      000662                       1572 00121$:
      000662 06 00                 1573 	ld	b, #0x00
      000664 F8 02                 1574 	ldhl	sp,	#2
      000666 2A                    1575 	ld	a,	(hl+)
      000667 66                    1576 	ld	h, (hl)
      000668 6F                    1577 	ld	l, a
      000669 09                    1578 	add	hl, bc
      00066A 4D                    1579 	ld	c, l
      00066B 7C                    1580 	ld	a, h
      00066C                       1581 00125$:
      00066C D1                    1582 	pop	de
      00066D D5                    1583 	push	de
      00066E D5                    1584 	push	de
      00066F 11 01 00              1585 	ld	de, #0x0001
      000672 D5                    1586 	push	de
      000673 D5                    1587 	push	de
      000674 47                    1588 	ld	b, a
      000675 C5                    1589 	push	bc
      000676 CDrEDr00              1590 	call	_make_show_win_map
                                   1591 ;main.c:152: }
      000679 E8 0D                 1592 	add	sp, #13
      00067B C9                    1593 	ret
                                   1594 ;main.c:155: void init_player()
                                   1595 ;	---------------------------------
                                   1596 ; Function init_player
                                   1597 ; ---------------------------------
      00067C                       1598 _init_player::
                                   1599 ;main.c:157: player.width = 8;
      00067C 21r0Ar00              1600 	ld	hl, #(_player + 10)
      00067F 3E 08                 1601 	ld	a, #0x08
      000681 22                    1602 	ld	(hl+), a
      000682 36 00                 1603 	ld	(hl), #0x00
                                   1604 ;main.c:158: player.height = 24;
      000684 21r08r00              1605 	ld	hl, #(_player + 8)
      000687 3E 18                 1606 	ld	a, #0x18
      000689 22                    1607 	ld	(hl+), a
      00068A 36 00                 1608 	ld	(hl), #0x00
                                   1609 ;main.c:160: player.x = 140;
      00068C 01r06r00              1610 	ld	bc, #_player + 6
      00068F 3E 8C                 1611 	ld	a, #0x8c
      000691 02                    1612 	ld	(bc), a
                                   1613 ;main.c:161: player.y = MIDY;
      000692 21r07r00              1614 	ld	hl, #(_player + 7)
      000695 36 48                 1615 	ld	(hl), #0x48
                                   1616 ;main.c:163: player.score = 0;
      000697 21r0Cr00              1617 	ld	hl, #(_player + 12)
      00069A AF                    1618 	xor	a, a
      00069B 22                    1619 	ld	(hl+), a
      00069C 77                    1620 	ld	(hl), a
                                   1621 ;c:/gbdk/include/gb/gb.h:1447: shadow_OAM[nb].tile=tile;
      00069D 21r02r00              1622 	ld	hl, #(_shadow_OAM + 2)
      0006A0 36 00                 1623 	ld	(hl), #0x00
                                   1624 ;main.c:166: player.spriteids[0] = 0;
      0006A2 21r00r00              1625 	ld	hl, #_player
      0006A5 AF                    1626 	xor	a, a
      0006A6 22                    1627 	ld	(hl+), a
      0006A7 77                    1628 	ld	(hl), a
                                   1629 ;c:/gbdk/include/gb/gb.h:1447: shadow_OAM[nb].tile=tile;
      0006A8 21r06r00              1630 	ld	hl, #(_shadow_OAM + 6)
      0006AB 36 01                 1631 	ld	(hl), #0x01
                                   1632 ;main.c:168: player.spriteids[1] = 1;
      0006AD 21r02r00              1633 	ld	hl, #(_player + 2)
      0006B0 3E 01                 1634 	ld	a, #0x01
      0006B2 22                    1635 	ld	(hl+), a
      0006B3 36 00                 1636 	ld	(hl), #0x00
                                   1637 ;c:/gbdk/include/gb/gb.h:1447: shadow_OAM[nb].tile=tile;
      0006B5 21r0Ar00              1638 	ld	hl, #(_shadow_OAM + 10)
      0006B8 36 02                 1639 	ld	(hl), #0x02
                                   1640 ;main.c:170: player.spriteids[2] = 2;
      0006BA 21r04r00              1641 	ld	hl, #(_player + 4)
      0006BD 3E 02                 1642 	ld	a, #0x02
      0006BF 22                    1643 	ld	(hl+), a
      0006C0 36 00                 1644 	ld	(hl), #0x00
                                   1645 ;main.c:172: moveCharacter(&player, player.x, player.y);
      0006C2 FAr07r00              1646 	ld	a, (#(_player + 7) + 0)
      0006C5 5F                    1647 	ld	e, a
      0006C6 16 00                 1648 	ld	d, #0x00
      0006C8 0A                    1649 	ld	a, (bc)
      0006C9 06 00                 1650 	ld	b, #0x00
      0006CB D5                    1651 	push	de
      0006CC 4F                    1652 	ld	c, a
      0006CD C5                    1653 	push	bc
      0006CE 11r00r00              1654 	ld	de, #_player
      0006D1 D5                    1655 	push	de
      0006D2 CDr21r05              1656 	call	_moveCharacter
      0006D5 E8 06                 1657 	add	sp, #6
                                   1658 ;main.c:174: }
      0006D7 C9                    1659 	ret
                                   1660 ;main.c:176: void init_AI()
                                   1661 ;	---------------------------------
                                   1662 ; Function init_AI
                                   1663 ; ---------------------------------
      0006D8                       1664 _init_AI::
                                   1665 ;main.c:178: AI.width = 8;
      0006D8 21r18r00              1666 	ld	hl, #(_AI + 10)
      0006DB 3E 08                 1667 	ld	a, #0x08
      0006DD 22                    1668 	ld	(hl+), a
      0006DE 36 00                 1669 	ld	(hl), #0x00
                                   1670 ;main.c:179: AI.height = 24;
      0006E0 21r16r00              1671 	ld	hl, #(_AI + 8)
      0006E3 3E 18                 1672 	ld	a, #0x18
      0006E5 22                    1673 	ld	(hl+), a
      0006E6 36 00                 1674 	ld	(hl), #0x00
                                   1675 ;main.c:181: AI.x = 20;
      0006E8 21r14r00              1676 	ld	hl, #(_AI + 6)
      0006EB 36 14                 1677 	ld	(hl), #0x14
                                   1678 ;main.c:182: AI.y = MIDY;
      0006ED 21r15r00              1679 	ld	hl, #(_AI + 7)
      0006F0 36 48                 1680 	ld	(hl), #0x48
                                   1681 ;main.c:184: AI.score = 0;
      0006F2 21r1Ar00              1682 	ld	hl, #(_AI + 12)
      0006F5 AF                    1683 	xor	a, a
      0006F6 22                    1684 	ld	(hl+), a
      0006F7 77                    1685 	ld	(hl), a
                                   1686 ;c:/gbdk/include/gb/gb.h:1447: shadow_OAM[nb].tile=tile;
      0006F8 21r0Er00              1687 	ld	hl, #(_shadow_OAM + 14)
      0006FB 36 00                 1688 	ld	(hl), #0x00
                                   1689 ;main.c:187: AI.spriteids[0] = 3;
      0006FD 21r0Er00              1690 	ld	hl, #_AI
      000700 3E 03                 1691 	ld	a, #0x03
      000702 22                    1692 	ld	(hl+), a
      000703 36 00                 1693 	ld	(hl), #0x00
                                   1694 ;c:/gbdk/include/gb/gb.h:1447: shadow_OAM[nb].tile=tile;
      000705 21r12r00              1695 	ld	hl, #(_shadow_OAM + 18)
      000708 36 01                 1696 	ld	(hl), #0x01
                                   1697 ;main.c:189: AI.spriteids[1] = 4;
      00070A 21r10r00              1698 	ld	hl, #(_AI + 2)
      00070D 3E 04                 1699 	ld	a, #0x04
      00070F 22                    1700 	ld	(hl+), a
      000710 36 00                 1701 	ld	(hl), #0x00
                                   1702 ;c:/gbdk/include/gb/gb.h:1447: shadow_OAM[nb].tile=tile;
      000712 21r16r00              1703 	ld	hl, #(_shadow_OAM + 22)
      000715 36 02                 1704 	ld	(hl), #0x02
                                   1705 ;main.c:191: AI.spriteids[2] = 5;
      000717 21r12r00              1706 	ld	hl, #(_AI + 4)
      00071A 3E 05                 1707 	ld	a, #0x05
      00071C 22                    1708 	ld	(hl+), a
      00071D 36 00                 1709 	ld	(hl), #0x00
                                   1710 ;main.c:193: AICentre = AI.y + AI.height/2;
      00071F 21r15r00              1711 	ld	hl, #(_AI + 7)
      000722 4E                    1712 	ld	c, (hl)
      000723 21r16r00              1713 	ld	hl, #(_AI + 8)
      000726 2A                    1714 	ld	a, (hl+)
      000727 47                    1715 	ld	b, a
      000728 6E                    1716 	ld	l, (hl)
                                   1717 ;	spillPairReg hl
      000729 CB 3D                 1718 	srl	l
      00072B CB 18                 1719 	rr	b
      00072D 78                    1720 	ld	a, b
      00072E 81                    1721 	add	a, c
      00072F EAr1Er00              1722 	ld	(#_AICentre),a
                                   1723 ;main.c:195: moveCharacter(&AI, AI.x, AI.y);
      000732 FAr15r00              1724 	ld	a, (#(_AI + 7) + 0)
      000735 4F                    1725 	ld	c, a
      000736 06 00                 1726 	ld	b, #0x00
      000738 FAr14r00              1727 	ld	a, (#(_AI + 6) + 0)
      00073B 16 00                 1728 	ld	d, #0x00
      00073D C5                    1729 	push	bc
      00073E 5F                    1730 	ld	e, a
      00073F D5                    1731 	push	de
      000740 11r0Er00              1732 	ld	de, #_AI
      000743 D5                    1733 	push	de
      000744 CDr21r05              1734 	call	_moveCharacter
      000747 E8 06                 1735 	add	sp, #6
                                   1736 ;main.c:197: }
      000749 C9                    1737 	ret
                                   1738 ;main.c:199: void init_ball()
                                   1739 ;	---------------------------------
                                   1740 ; Function init_ball
                                   1741 ; ---------------------------------
      00074A                       1742 _init_ball::
                                   1743 ;main.c:201: xBall = MIDX;
      00074A 21rD1r02              1744 	ld	hl, #_xBall
      00074D 3E 50                 1745 	ld	a, #0x50
      00074F 22                    1746 	ld	(hl+), a
      000750 AF                    1747 	xor	a, a
      000751 77                    1748 	ld	(hl), a
                                   1749 ;main.c:202: yBall = MIDY + SPRITE_HEIGHT;
      000752 21rD3r02              1750 	ld	hl, #_yBall
      000755 3E 50                 1751 	ld	a, #0x50
      000757 22                    1752 	ld	(hl+), a
      000758 AF                    1753 	xor	a, a
      000759 77                    1754 	ld	(hl), a
                                   1755 ;main.c:204: ballCentre = yBall + 4;
      00075A 21r1Fr00              1756 	ld	hl, #_ballCentre
      00075D 36 54                 1757 	ld	(hl), #0x54
                                   1758 ;main.c:207: speed_y = 3;
      00075F 21r1Cr00              1759 	ld	hl, #_speed_y
      000762 36 03                 1760 	ld	(hl), #0x03
                                   1761 ;main.c:208: speed_x = 1;
      000764 21r1Dr00              1762 	ld	hl, #_speed_x
      000767 36 01                 1763 	ld	(hl), #0x01
                                   1764 ;main.c:210: ball_alive = 1;
      000769 21r20r00              1765 	ld	hl, #_ball_alive
      00076C 36 01                 1766 	ld	(hl), #0x01
                                   1767 ;main.c:215: set_sprite_tile(BALL_SPRITE, ball);
      00076E 21rA4r04              1768 	ld	hl, #_ball
      000771 4E                    1769 	ld	c, (hl)
                                   1770 ;c:/gbdk/include/gb/gb.h:1447: shadow_OAM[nb].tile=tile;
      000772 21r1Ar00              1771 	ld	hl, #(_shadow_OAM + 26)
      000775 71                    1772 	ld	(hl), c
                                   1773 ;main.c:216: move_sprite(BALL_SPRITE, xBall, yBall);
      000776 21rD3r02              1774 	ld	hl, #_yBall
      000779 46                    1775 	ld	b, (hl)
      00077A 21rD1r02              1776 	ld	hl, #_xBall
      00077D 4E                    1777 	ld	c, (hl)
                                   1778 ;c:/gbdk/include/gb/gb.h:1520: OAM_item_t * itm = &shadow_OAM[nb];
      00077E 21r18r00              1779 	ld	hl, #(_shadow_OAM + 24)
                                   1780 ;c:/gbdk/include/gb/gb.h:1521: itm->y=y, itm->x=x;
      000781 78                    1781 	ld	a, b
      000782 22                    1782 	ld	(hl+), a
      000783 71                    1783 	ld	(hl), c
                                   1784 ;main.c:216: move_sprite(BALL_SPRITE, xBall, yBall);
                                   1785 ;main.c:217: }
      000784 C9                    1786 	ret
                                   1787 ;main.c:266: void movement()
                                   1788 ;	---------------------------------
                                   1789 ; Function movement
                                   1790 ; ---------------------------------
      000785                       1791 _movement::
                                   1792 ;main.c:268: if(UP)
      000785 CDr00r00              1793 	call	_joypad
      000788 CB 53                 1794 	bit	2, e
      00078A 28 07                 1795 	jr	Z, 00102$
                                   1796 ;main.c:270: player.y -= 4;
      00078C 01r07r00              1797 	ld	bc, #_player+7
      00078F 0A                    1798 	ld	a, (bc)
      000790 C6 FC                 1799 	add	a, #0xfc
      000792 02                    1800 	ld	(bc), a
      000793                       1801 00102$:
                                   1802 ;main.c:274: if(DOWN)
      000793 CDr00r00              1803 	call	_joypad
      000796 CB 5B                 1804 	bit	3, e
      000798 28 07                 1805 	jr	Z, 00104$
                                   1806 ;main.c:276: player.y += 4;
      00079A 01r07r00              1807 	ld	bc, #_player+7
      00079D 0A                    1808 	ld	a, (bc)
      00079E C6 04                 1809 	add	a, #0x04
      0007A0 02                    1810 	ld	(bc), a
      0007A1                       1811 00104$:
                                   1812 ;main.c:280: if(player.y <= 20)
      0007A1 21r07r00              1813 	ld	hl, #_player + 7
      0007A4 4E                    1814 	ld	c, (hl)
      0007A5 3E 14                 1815 	ld	a, #0x14
      0007A7 91                    1816 	sub	a, c
      0007A8 38 04                 1817 	jr	C, 00108$
                                   1818 ;main.c:281: player.y = 20;
      0007AA 36 14                 1819 	ld	(hl), #0x14
      0007AC 18 07                 1820 	jr	00109$
      0007AE                       1821 00108$:
                                   1822 ;main.c:282: else if(player.y >= SCREENHEIGHT - 20)
      0007AE 79                    1823 	ld	a, c
      0007AF D6 7C                 1824 	sub	a, #0x7c
      0007B1 38 02                 1825 	jr	C, 00109$
                                   1826 ;main.c:283: player.y = SCREENHEIGHT - 20;
      0007B3 36 7C                 1827 	ld	(hl), #0x7c
      0007B5                       1828 00109$:
                                   1829 ;main.c:285: moveCharacter(&player, player.x, player.y);
      0007B5 4E                    1830 	ld	c, (hl)
      0007B6 06 00                 1831 	ld	b, #0x00
      0007B8 FAr06r00              1832 	ld	a, (#(_player + 6) + 0)
      0007BB 16 00                 1833 	ld	d, #0x00
      0007BD C5                    1834 	push	bc
      0007BE 5F                    1835 	ld	e, a
      0007BF D5                    1836 	push	de
      0007C0 11r00r00              1837 	ld	de, #_player
      0007C3 D5                    1838 	push	de
      0007C4 CDr21r05              1839 	call	_moveCharacter
      0007C7 E8 06                 1840 	add	sp, #6
                                   1841 ;main.c:287: }
      0007C9 C9                    1842 	ret
                                   1843 ;main.c:289: void ai_movement(uint8_t offset, uint8_t speed)
                                   1844 ;	---------------------------------
                                   1845 ; Function ai_movement
                                   1846 ; ---------------------------------
      0007CA                       1847 _ai_movement::
      0007CA E8 FA                 1848 	add	sp, #-6
                                   1849 ;main.c:294: if(AICentre + offset < ballCentre)
      0007CC FAr1Er00              1850 	ld	a, (#_AICentre)
      0007CF F8 00                 1851 	ldhl	sp,	#0
      0007D1 22                    1852 	ld	(hl+), a
      0007D2 36 00                 1853 	ld	(hl), #0x00
      0007D4 F8 08                 1854 	ldhl	sp,	#8
      0007D6 4E                    1855 	ld	c, (hl)
      0007D7 06 00                 1856 	ld	b, #0x00
      0007D9 E1                    1857 	pop	hl
      0007DA E5                    1858 	push	hl
      0007DB 09                    1859 	add	hl, bc
      0007DC E5                    1860 	push	hl
      0007DD 7D                    1861 	ld	a, l
      0007DE F8 04                 1862 	ldhl	sp,	#4
      0007E0 77                    1863 	ld	(hl), a
      0007E1 E1                    1864 	pop	hl
      0007E2 7C                    1865 	ld	a, h
      0007E3 F8 03                 1866 	ldhl	sp,	#3
      0007E5 77                    1867 	ld	(hl), a
      0007E6 FAr1Fr00              1868 	ld	a, (#_ballCentre)
      0007E9 F8 04                 1869 	ldhl	sp,	#4
      0007EB 22                    1870 	ld	(hl+), a
      0007EC 36 00                 1871 	ld	(hl), #0x00
      0007EE F8 02                 1872 	ldhl	sp,	#2
      0007F0 5D                    1873 	ld	e, l
      0007F1 54                    1874 	ld	d, h
      0007F2 F8 04                 1875 	ldhl	sp,	#4
      0007F4 1A                    1876 	ld	a, (de)
      0007F5 13                    1877 	inc	de
      0007F6 96                    1878 	sub	a, (hl)
      0007F7 23                    1879 	inc	hl
      0007F8 1A                    1880 	ld	a, (de)
      0007F9 9E                    1881 	sbc	a, (hl)
      0007FA 1A                    1882 	ld	a, (de)
      0007FB 57                    1883 	ld	d, a
      0007FC CB 7E                 1884 	bit	7, (hl)
      0007FE 28 07                 1885 	jr	Z, 00133$
      000800 CB 7A                 1886 	bit	7, d
      000802 20 08                 1887 	jr	NZ, 00134$
      000804 BF                    1888 	cp	a, a
      000805 18 05                 1889 	jr	00134$
      000807                       1890 00133$:
      000807 CB 7A                 1891 	bit	7, d
      000809 28 01                 1892 	jr	Z, 00134$
      00080B 37                    1893 	scf
      00080C                       1894 00134$:
      00080C 30 0A                 1895 	jr	NC, 00104$
                                   1896 ;main.c:296: AI.y += speed;
      00080E 01r15r00              1897 	ld	bc, #_AI+7
      000811 0A                    1898 	ld	a, (bc)
      000812 F8 09                 1899 	ldhl	sp,	#9
      000814 86                    1900 	add	a, (hl)
      000815 02                    1901 	ld	(bc), a
      000816 18 2C                 1902 	jr	00105$
      000818                       1903 00104$:
                                   1904 ;main.c:298: else if(AICentre - offset > ballCentre)
      000818 D1                    1905 	pop	de
      000819 D5                    1906 	push	de
      00081A 7B                    1907 	ld	a, e
      00081B 91                    1908 	sub	a, c
      00081C 5F                    1909 	ld	e, a
      00081D 7A                    1910 	ld	a, d
      00081E 98                    1911 	sbc	a, b
      00081F 47                    1912 	ld	b, a
      000820 4B                    1913 	ld	c, e
      000821 F8 04                 1914 	ldhl	sp,	#4
      000823 2A                    1915 	ld	a, (hl+)
      000824 91                    1916 	sub	a, c
      000825 7E                    1917 	ld	a, (hl)
      000826 98                    1918 	sbc	a, b
      000827 56                    1919 	ld	d, (hl)
      000828 78                    1920 	ld	a, b
      000829 CB 7F                 1921 	bit	7,a
      00082B 28 07                 1922 	jr	Z, 00135$
      00082D CB 7A                 1923 	bit	7, d
      00082F 20 08                 1924 	jr	NZ, 00136$
      000831 BF                    1925 	cp	a, a
      000832 18 05                 1926 	jr	00136$
      000834                       1927 00135$:
      000834 CB 7A                 1928 	bit	7, d
      000836 28 01                 1929 	jr	Z, 00136$
      000838 37                    1930 	scf
      000839                       1931 00136$:
      000839 30 09                 1932 	jr	NC, 00105$
                                   1933 ;main.c:300: AI.y -= speed;
      00083B FAr15r00              1934 	ld	a, (#(_AI + 7) + 0)
      00083E F8 09                 1935 	ldhl	sp,	#9
      000840 96                    1936 	sub	a, (hl)
      000841 EAr15r00              1937 	ld	(#(_AI + 7)),a
      000844                       1938 00105$:
                                   1939 ;main.c:303: if(AI.y <= 20)
      000844 21r15r00              1940 	ld	hl, #(_AI + 7)
      000847 4E                    1941 	ld	c, (hl)
      000848 3E 14                 1942 	ld	a, #0x14
      00084A 91                    1943 	sub	a, c
      00084B 38 07                 1944 	jr	C, 00109$
                                   1945 ;main.c:304: AI.y = 20;
      00084D 21r15r00              1946 	ld	hl, #(_AI + 7)
      000850 36 14                 1947 	ld	(hl), #0x14
      000852 18 0A                 1948 	jr	00110$
      000854                       1949 00109$:
                                   1950 ;main.c:305: else if(AI.y >= SCREENHEIGHT - 20)
      000854 79                    1951 	ld	a, c
      000855 D6 7C                 1952 	sub	a, #0x7c
      000857 38 05                 1953 	jr	C, 00110$
                                   1954 ;main.c:306: AI.y = SCREENHEIGHT - 20;
      000859 21r15r00              1955 	ld	hl, #(_AI + 7)
      00085C 36 7C                 1956 	ld	(hl), #0x7c
      00085E                       1957 00110$:
                                   1958 ;main.c:308: AICentre = AI.y + AI.height/2;
      00085E FAr15r00              1959 	ld	a, (#(_AI + 7) + 0)
      000861 F8 03                 1960 	ldhl	sp,	#3
      000863 77                    1961 	ld	(hl), a
      000864 11r16r00              1962 	ld	de, #(_AI + 8)
      000867 1A                    1963 	ld	a, (de)
      000868 F8 04                 1964 	ldhl	sp,	#4
      00086A 22                    1965 	ld	(hl+), a
      00086B 13                    1966 	inc	de
      00086C 1A                    1967 	ld	a, (de)
      00086D 77                    1968 	ld	(hl), a
      00086E CB 3E                 1969 	srl	(hl)
      000870 2B                    1970 	dec	hl
      000871 CB 1E                 1971 	rr	(hl)
      000873 2A                    1972 	ld	a, (hl+)
      000874 77                    1973 	ld	(hl), a
      000875 3A                    1974 	ld	a, (hl-)
      000876 2B                    1975 	dec	hl
      000877 86                    1976 	add	a, (hl)
      000878 EAr1Er00              1977 	ld	(#_AICentre),a
                                   1978 ;main.c:310: moveCharacter(&AI, AI.x, AI.y);
      00087B FAr15r00              1979 	ld	a, (#(_AI + 7) + 0)
      00087E 4F                    1980 	ld	c, a
      00087F 06 00                 1981 	ld	b, #0x00
      000881 FAr14r00              1982 	ld	a, (#(_AI + 6) + 0)
      000884 16 00                 1983 	ld	d, #0x00
      000886 C5                    1984 	push	bc
      000887 5F                    1985 	ld	e, a
      000888 D5                    1986 	push	de
      000889 11r0Er00              1987 	ld	de, #_AI
      00088C D5                    1988 	push	de
      00088D CDr21r05              1989 	call	_moveCharacter
                                   1990 ;main.c:312: }
      000890 E8 0C                 1991 	add	sp, #12
      000892 C9                    1992 	ret
                                   1993 ;main.c:346: void ball_movement()
                                   1994 ;	---------------------------------
                                   1995 ; Function ball_movement
                                   1996 ; ---------------------------------
      000893                       1997 _ball_movement::
      000893 E8 F0                 1998 	add	sp, #-16
                                   1999 ;main.c:349: UBYTE collisioned = collision(&player) || collision(&AI);
      000895 FAr06r00              2000 	ld	a, (#(_player + 6) + 0)
      000898 4F                    2001 	ld	c, a
      000899 06 00                 2002 	ld	b, #0x00
      00089B 21rD1r02              2003 	ld	hl, #_xBall
      00089E 2A                    2004 	ld	a, (hl+)
      00089F 5F                    2005 	ld	e, a
      0008A0 56                    2006 	ld	d, (hl)
      0008A1 21 08 00              2007 	ld	hl, #0x0008
      0008A4 19                    2008 	add	hl, de
      0008A5 33                    2009 	inc	sp
      0008A6 33                    2010 	inc	sp
      0008A7 E5                    2011 	push	hl
      0008A8 21rD3r02              2012 	ld	hl, #_yBall
      0008AB 2A                    2013 	ld	a, (hl+)
      0008AC 5F                    2014 	ld	e, a
      0008AD 56                    2015 	ld	d, (hl)
      0008AE 21 08 00              2016 	ld	hl, #0x0008
      0008B1 19                    2017 	add	hl, de
      0008B2 E5                    2018 	push	hl
      0008B3 7D                    2019 	ld	a, l
      0008B4 F8 04                 2020 	ldhl	sp,	#4
      0008B6 77                    2021 	ld	(hl), a
      0008B7 E1                    2022 	pop	hl
      0008B8 7C                    2023 	ld	a, h
      0008B9 F8 03                 2024 	ldhl	sp,	#3
      0008BB 77                    2025 	ld	(hl), a
      0008BC 21rD1r02              2026 	ld	hl, #_xBall
      0008BF 2A                    2027 	ld	a, (hl+)
      0008C0 5F                    2028 	ld	e, a
      0008C1 56                    2029 	ld	d, (hl)
      0008C2 6B                    2030 	ld	l, e
      0008C3 62                    2031 	ld	h, d
      0008C4 23                    2032 	inc	hl
      0008C5 E5                    2033 	push	hl
      0008C6 7D                    2034 	ld	a, l
      0008C7 F8 06                 2035 	ldhl	sp,	#6
      0008C9 77                    2036 	ld	(hl), a
      0008CA E1                    2037 	pop	hl
      0008CB 7C                    2038 	ld	a, h
      0008CC F8 05                 2039 	ldhl	sp,	#5
      0008CE 77                    2040 	ld	(hl), a
      0008CF 21rD1r02              2041 	ld	hl, #_xBall
      0008D2 2A                    2042 	ld	a, (hl+)
      0008D3 5F                    2043 	ld	e, a
      0008D4 56                    2044 	ld	d, (hl)
      0008D5 21 01 00              2045 	ld	hl, #0x0001
      0008D8 7B                    2046 	ld	a, e
      0008D9 95                    2047 	sub	a, l
      0008DA 5F                    2048 	ld	e, a
      0008DB 7A                    2049 	ld	a, d
      0008DC 9C                    2050 	sbc	a, h
      0008DD F8 07                 2051 	ldhl	sp,	#7
      0008DF 32                    2052 	ld	(hl-), a
      0008E0 73                    2053 	ld	(hl), e
      0008E1 21rD3r02              2054 	ld	hl, #_yBall
      0008E4 2A                    2055 	ld	a, (hl+)
      0008E5 5F                    2056 	ld	e, a
      0008E6 56                    2057 	ld	d, (hl)
      0008E7 6B                    2058 	ld	l, e
      0008E8 62                    2059 	ld	h, d
      0008E9 23                    2060 	inc	hl
      0008EA E5                    2061 	push	hl
      0008EB 7D                    2062 	ld	a, l
      0008EC F8 0A                 2063 	ldhl	sp,	#10
      0008EE 77                    2064 	ld	(hl), a
      0008EF E1                    2065 	pop	hl
      0008F0 7C                    2066 	ld	a, h
      0008F1 F8 09                 2067 	ldhl	sp,	#9
      0008F3 77                    2068 	ld	(hl), a
      0008F4 21rD3r02              2069 	ld	hl, #_yBall
      0008F7 2A                    2070 	ld	a, (hl+)
      0008F8 5F                    2071 	ld	e, a
      0008F9 56                    2072 	ld	d, (hl)
      0008FA 21 01 00              2073 	ld	hl, #0x0001
      0008FD 7B                    2074 	ld	a, e
      0008FE 95                    2075 	sub	a, l
      0008FF 5F                    2076 	ld	e, a
      000900 7A                    2077 	ld	a, d
      000901 9C                    2078 	sbc	a, h
      000902 F8 0B                 2079 	ldhl	sp,	#11
      000904 32                    2080 	ld	(hl-), a
      000905 7B                    2081 	ld	a, e
      000906 22                    2082 	ld	(hl+), a
      000907 23                    2083 	inc	hl
      000908 FAr06r00              2084 	ld	a, (#(_player + 6) + 0)
      00090B 22                    2085 	ld	(hl+), a
      00090C 36 00                 2086 	ld	(hl), #0x00
      00090E 23                    2087 	inc	hl
      00090F 5F                    2088 	ld	e, a
      000910 16 00                 2089 	ld	d, #0x00
      000912 7B                    2090 	ld	a, e
      000913 22                    2091 	ld	(hl+), a
      000914 72                    2092 	ld	(hl), d
      000915 21rD1r02              2093 	ld	hl, #_xBall
      000918 79                    2094 	ld	a, c
      000919 96                    2095 	sub	a, (hl)
      00091A 23                    2096 	inc	hl
      00091B 78                    2097 	ld	a, b
      00091C 9E                    2098 	sbc	a, (hl)
      00091D 38 21                 2099 	jr	C, 00124$
      00091F F8 00                 2100 	ldhl	sp,	#0
      000921 2A                    2101 	ld	a, (hl+)
      000922 91                    2102 	sub	a, c
      000923 7E                    2103 	ld	a, (hl)
      000924 98                    2104 	sbc	a, b
      000925 38 19                 2105 	jr	C, 00124$
      000927 FAr07r00              2106 	ld	a, (#(_player + 7) + 0)
      00092A 4F                    2107 	ld	c, a
      00092B 06 00                 2108 	ld	b, #0x00
      00092D 21rD3r02              2109 	ld	hl, #_yBall
      000930 79                    2110 	ld	a, c
      000931 96                    2111 	sub	a, (hl)
      000932 23                    2112 	inc	hl
      000933 78                    2113 	ld	a, b
      000934 9E                    2114 	sbc	a, (hl)
      000935 38 09                 2115 	jr	C, 00124$
      000937 F8 02                 2116 	ldhl	sp,	#2
      000939 2A                    2117 	ld	a, (hl+)
      00093A 91                    2118 	sub	a, c
      00093B 7E                    2119 	ld	a, (hl)
      00093C 98                    2120 	sbc	a, b
      00093D D2rD5r09              2121 	jp	NC, 00139$
      000940                       2122 00124$:
      000940 11rD1r02              2123 	ld	de, #_xBall
      000943 F8 0C                 2124 	ldhl	sp,	#12
      000945 1A                    2125 	ld	a, (de)
      000946 13                    2126 	inc	de
      000947 96                    2127 	sub	a, (hl)
      000948 23                    2128 	inc	hl
      000949 1A                    2129 	ld	a, (de)
      00094A 9E                    2130 	sbc	a, (hl)
      00094B 38 3D                 2131 	jr	C, 00128$
      00094D 21r0Ar00              2132 	ld	hl, #(_player + 10)
      000950 2A                    2133 	ld	a, (hl+)
      000951 4F                    2134 	ld	c, a
      000952 46                    2135 	ld	b, (hl)
      000953 F8 0E                 2136 	ldhl	sp,	#14
      000955 2A                    2137 	ld	a,	(hl+)
      000956 66                    2138 	ld	h, (hl)
      000957 6F                    2139 	ld	l, a
      000958 09                    2140 	add	hl, bc
      000959 4D                    2141 	ld	c, l
      00095A 44                    2142 	ld	b, h
      00095B 21rD1r02              2143 	ld	hl, #_xBall
      00095E 79                    2144 	ld	a, c
      00095F 96                    2145 	sub	a, (hl)
      000960 23                    2146 	inc	hl
      000961 78                    2147 	ld	a, b
      000962 9E                    2148 	sbc	a, (hl)
      000963 38 25                 2149 	jr	C, 00128$
      000965 21r07r00              2150 	ld	hl, #(_player + 7)
      000968 4E                    2151 	ld	c, (hl)
      000969 41                    2152 	ld	b, c
      00096A 1E 00                 2153 	ld	e, #0x00
      00096C 21rD3r02              2154 	ld	hl, #_yBall
      00096F 2A                    2155 	ld	a, (hl+)
      000970 90                    2156 	sub	a, b
      000971 7E                    2157 	ld	a, (hl)
      000972 9B                    2158 	sbc	a, e
      000973 38 15                 2159 	jr	C, 00128$
      000975 06 00                 2160 	ld	b, #0x00
      000977 21r08r00              2161 	ld	hl, #(_player + 8)
      00097A 2A                    2162 	ld	a,	(hl+)
      00097B 66                    2163 	ld	h, (hl)
                                   2164 ;	spillPairReg hl
      00097C 6F                    2165 	ld	l, a
                                   2166 ;	spillPairReg hl
                                   2167 ;	spillPairReg hl
      00097D 09                    2168 	add	hl, bc
      00097E 4D                    2169 	ld	c, l
      00097F 44                    2170 	ld	b, h
      000980 21rD3r02              2171 	ld	hl, #_yBall
      000983 79                    2172 	ld	a, c
      000984 96                    2173 	sub	a, (hl)
      000985 23                    2174 	inc	hl
      000986 78                    2175 	ld	a, b
      000987 9E                    2176 	sbc	a, (hl)
      000988 30 4B                 2177 	jr	NC, 00139$
      00098A                       2178 00128$:
      00098A F8 00                 2179 	ldhl	sp,	#0
      00098C 5D                    2180 	ld	e, l
      00098D 54                    2181 	ld	d, h
      00098E F8 0C                 2182 	ldhl	sp,	#12
      000990 1A                    2183 	ld	a, (de)
      000991 13                    2184 	inc	de
      000992 96                    2185 	sub	a, (hl)
      000993 23                    2186 	inc	hl
      000994 1A                    2187 	ld	a, (de)
      000995 9E                    2188 	sbc	a, (hl)
      000996 DAr4Fr0A              2189 	jp	C, 00140$
      000999 21r0Ar00              2190 	ld	hl, #(_player + 10)
      00099C 2A                    2191 	ld	a, (hl+)
      00099D 4F                    2192 	ld	c, a
      00099E 46                    2193 	ld	b, (hl)
      00099F F8 0E                 2194 	ldhl	sp,	#14
      0009A1 2A                    2195 	ld	a,	(hl+)
      0009A2 66                    2196 	ld	h, (hl)
      0009A3 6F                    2197 	ld	l, a
      0009A4 09                    2198 	add	hl, bc
      0009A5 4D                    2199 	ld	c, l
      0009A6 44                    2200 	ld	b, h
      0009A7 F8 00                 2201 	ldhl	sp,	#0
      0009A9 79                    2202 	ld	a, c
      0009AA 96                    2203 	sub	a, (hl)
      0009AB 23                    2204 	inc	hl
      0009AC 78                    2205 	ld	a, b
      0009AD 9E                    2206 	sbc	a, (hl)
      0009AE DAr4Fr0A              2207 	jp	C, 00140$
      0009B1 21r07r00              2208 	ld	hl, #(_player + 7)
      0009B4 4E                    2209 	ld	c, (hl)
      0009B5 41                    2210 	ld	b, c
      0009B6 1E 00                 2211 	ld	e, #0x00
      0009B8 F8 02                 2212 	ldhl	sp,	#2
      0009BA 2A                    2213 	ld	a, (hl+)
      0009BB 90                    2214 	sub	a, b
      0009BC 7E                    2215 	ld	a, (hl)
      0009BD 9B                    2216 	sbc	a, e
      0009BE DAr4Fr0A              2217 	jp	C, 00140$
      0009C1 06 00                 2218 	ld	b, #0x00
      0009C3 21r08r00              2219 	ld	hl, #(_player + 8)
      0009C6 2A                    2220 	ld	a,	(hl+)
      0009C7 66                    2221 	ld	h, (hl)
                                   2222 ;	spillPairReg hl
      0009C8 6F                    2223 	ld	l, a
                                   2224 ;	spillPairReg hl
                                   2225 ;	spillPairReg hl
      0009C9 09                    2226 	add	hl, bc
      0009CA 4D                    2227 	ld	c, l
      0009CB 44                    2228 	ld	b, h
      0009CC F8 02                 2229 	ldhl	sp,	#2
      0009CE 79                    2230 	ld	a, c
      0009CF 96                    2231 	sub	a, (hl)
      0009D0 23                    2232 	inc	hl
      0009D1 78                    2233 	ld	a, b
      0009D2 9E                    2234 	sbc	a, (hl)
      0009D3 38 7A                 2235 	jr	C, 00140$
      0009D5                       2236 00139$:
      0009D5 21r0Ar00              2237 	ld	hl, #(_player + 10)
      0009D8 2A                    2238 	ld	a, (hl+)
      0009D9 4F                    2239 	ld	c, a
      0009DA 46                    2240 	ld	b, (hl)
      0009DB F8 0E                 2241 	ldhl	sp,	#14
      0009DD 2A                    2242 	ld	a,	(hl+)
      0009DE 66                    2243 	ld	h, (hl)
      0009DF 6F                    2244 	ld	l, a
      0009E0 09                    2245 	add	hl, bc
      0009E1 4D                    2246 	ld	c, l
      0009E2 44                    2247 	ld	b, h
      0009E3 21rD1r02              2248 	ld	hl, #_xBall
      0009E6 2A                    2249 	ld	a, (hl+)
      0009E7 91                    2250 	sub	a, c
      0009E8 7E                    2251 	ld	a, (hl)
      0009E9 98                    2252 	sbc	a, b
      0009EA 38 0F                 2253 	jr	C, 00136$
      0009EC F8 04                 2254 	ldhl	sp,	#4
      0009EE 7E                    2255 	ld	a, (hl)
      0009EF EArD1r02              2256 	ld	(#_xBall),a
      0009F2 F8 05                 2257 	ldhl	sp,	#5
      0009F4 7E                    2258 	ld	a, (hl)
      0009F5 EArD2r02              2259 	ld	(#_xBall + 1),a
      0009F8 C3r9Dr0B              2260 	jp	00174$
      0009FB                       2261 00136$:
      0009FB F8 0C                 2262 	ldhl	sp,	#12
      0009FD 5D                    2263 	ld	e, l
      0009FE 54                    2264 	ld	d, h
      0009FF 21rD1r02              2265 	ld	hl, #_xBall
      000A02 1A                    2266 	ld	a, (de)
      000A03 13                    2267 	inc	de
      000A04 96                    2268 	sub	a, (hl)
      000A05 23                    2269 	inc	hl
      000A06 1A                    2270 	ld	a, (de)
      000A07 9E                    2271 	sbc	a, (hl)
      000A08 38 0F                 2272 	jr	C, 00134$
      000A0A F8 06                 2273 	ldhl	sp,	#6
      000A0C 7E                    2274 	ld	a, (hl)
      000A0D EArD1r02              2275 	ld	(#_xBall),a
      000A10 F8 07                 2276 	ldhl	sp,	#7
      000A12 7E                    2277 	ld	a, (hl)
      000A13 EArD2r02              2278 	ld	(#_xBall + 1),a
      000A16 C3r9Dr0B              2279 	jp	00174$
      000A19                       2280 00134$:
      000A19 FAr07r00              2281 	ld	a, (#(_player + 7) + 0)
      000A1C 4F                    2282 	ld	c, a
      000A1D 06 00                 2283 	ld	b, #0x00
      000A1F 21r08r00              2284 	ld	hl, #(_player + 8)
      000A22 2A                    2285 	ld	a,	(hl+)
      000A23 66                    2286 	ld	h, (hl)
                                   2287 ;	spillPairReg hl
      000A24 6F                    2288 	ld	l, a
                                   2289 ;	spillPairReg hl
                                   2290 ;	spillPairReg hl
      000A25 09                    2291 	add	hl, bc
      000A26 4D                    2292 	ld	c, l
      000A27 44                    2293 	ld	b, h
      000A28 21rD3r02              2294 	ld	hl, #_yBall
      000A2B 2A                    2295 	ld	a, (hl+)
      000A2C 91                    2296 	sub	a, c
      000A2D 7E                    2297 	ld	a, (hl)
      000A2E 98                    2298 	sbc	a, b
      000A2F 38 0F                 2299 	jr	C, 00132$
      000A31 F8 08                 2300 	ldhl	sp,	#8
      000A33 7E                    2301 	ld	a, (hl)
      000A34 EArD3r02              2302 	ld	(#_yBall),a
      000A37 F8 09                 2303 	ldhl	sp,	#9
      000A39 7E                    2304 	ld	a, (hl)
      000A3A EArD4r02              2305 	ld	(#_yBall + 1),a
      000A3D C3r9Dr0B              2306 	jp	00174$
      000A40                       2307 00132$:
      000A40 F8 0A                 2308 	ldhl	sp,	#10
      000A42 7E                    2309 	ld	a, (hl)
      000A43 EArD3r02              2310 	ld	(#_yBall),a
      000A46 F8 0B                 2311 	ldhl	sp,	#11
      000A48 7E                    2312 	ld	a, (hl)
      000A49 EArD4r02              2313 	ld	(#_yBall + 1),a
      000A4C C3r9Dr0B              2314 	jp	00174$
      000A4F                       2315 00140$:
      000A4F FAr14r00              2316 	ld	a, (#(_AI + 6) + 0)
      000A52 4F                    2317 	ld	c, a
      000A53 06 00                 2318 	ld	b, #0x00
      000A55 FAr14r00              2319 	ld	a, (#(_AI + 6) + 0)
      000A58 F8 0C                 2320 	ldhl	sp,	#12
      000A5A 22                    2321 	ld	(hl+), a
      000A5B 36 00                 2322 	ld	(hl), #0x00
      000A5D 23                    2323 	inc	hl
      000A5E 5F                    2324 	ld	e, a
      000A5F 16 00                 2325 	ld	d, #0x00
      000A61 7B                    2326 	ld	a, e
      000A62 22                    2327 	ld	(hl+), a
      000A63 72                    2328 	ld	(hl), d
      000A64 21rD1r02              2329 	ld	hl, #_xBall
      000A67 79                    2330 	ld	a, c
      000A68 96                    2331 	sub	a, (hl)
      000A69 23                    2332 	inc	hl
      000A6A 78                    2333 	ld	a, b
      000A6B 9E                    2334 	sbc	a, (hl)
      000A6C 38 21                 2335 	jr	C, 00148$
      000A6E F8 00                 2336 	ldhl	sp,	#0
      000A70 2A                    2337 	ld	a, (hl+)
      000A71 91                    2338 	sub	a, c
      000A72 7E                    2339 	ld	a, (hl)
      000A73 98                    2340 	sbc	a, b
      000A74 38 19                 2341 	jr	C, 00148$
      000A76 FAr15r00              2342 	ld	a, (#(_AI + 7) + 0)
      000A79 4F                    2343 	ld	c, a
      000A7A 06 00                 2344 	ld	b, #0x00
      000A7C 21rD3r02              2345 	ld	hl, #_yBall
      000A7F 79                    2346 	ld	a, c
      000A80 96                    2347 	sub	a, (hl)
      000A81 23                    2348 	inc	hl
      000A82 78                    2349 	ld	a, b
      000A83 9E                    2350 	sbc	a, (hl)
      000A84 38 09                 2351 	jr	C, 00148$
      000A86 F8 02                 2352 	ldhl	sp,	#2
      000A88 2A                    2353 	ld	a, (hl+)
      000A89 91                    2354 	sub	a, c
      000A8A 7E                    2355 	ld	a, (hl)
      000A8B 98                    2356 	sbc	a, b
      000A8C D2r24r0B              2357 	jp	NC, 00163$
      000A8F                       2358 00148$:
      000A8F 11rD1r02              2359 	ld	de, #_xBall
      000A92 F8 0C                 2360 	ldhl	sp,	#12
      000A94 1A                    2361 	ld	a, (de)
      000A95 13                    2362 	inc	de
      000A96 96                    2363 	sub	a, (hl)
      000A97 23                    2364 	inc	hl
      000A98 1A                    2365 	ld	a, (de)
      000A99 9E                    2366 	sbc	a, (hl)
      000A9A 38 3D                 2367 	jr	C, 00152$
      000A9C 21r18r00              2368 	ld	hl, #(_AI + 10)
      000A9F 2A                    2369 	ld	a, (hl+)
      000AA0 4F                    2370 	ld	c, a
      000AA1 46                    2371 	ld	b, (hl)
      000AA2 F8 0E                 2372 	ldhl	sp,	#14
      000AA4 2A                    2373 	ld	a,	(hl+)
      000AA5 66                    2374 	ld	h, (hl)
      000AA6 6F                    2375 	ld	l, a
      000AA7 09                    2376 	add	hl, bc
      000AA8 4D                    2377 	ld	c, l
      000AA9 44                    2378 	ld	b, h
      000AAA 21rD1r02              2379 	ld	hl, #_xBall
      000AAD 79                    2380 	ld	a, c
      000AAE 96                    2381 	sub	a, (hl)
      000AAF 23                    2382 	inc	hl
      000AB0 78                    2383 	ld	a, b
      000AB1 9E                    2384 	sbc	a, (hl)
      000AB2 38 25                 2385 	jr	C, 00152$
      000AB4 21r15r00              2386 	ld	hl, #(_AI + 7)
      000AB7 4E                    2387 	ld	c, (hl)
      000AB8 41                    2388 	ld	b, c
      000AB9 1E 00                 2389 	ld	e, #0x00
      000ABB 21rD3r02              2390 	ld	hl, #_yBall
      000ABE 2A                    2391 	ld	a, (hl+)
      000ABF 90                    2392 	sub	a, b
      000AC0 7E                    2393 	ld	a, (hl)
      000AC1 9B                    2394 	sbc	a, e
      000AC2 38 15                 2395 	jr	C, 00152$
      000AC4 06 00                 2396 	ld	b, #0x00
      000AC6 21r16r00              2397 	ld	hl, #(_AI + 8)
      000AC9 2A                    2398 	ld	a,	(hl+)
      000ACA 66                    2399 	ld	h, (hl)
                                   2400 ;	spillPairReg hl
      000ACB 6F                    2401 	ld	l, a
                                   2402 ;	spillPairReg hl
                                   2403 ;	spillPairReg hl
      000ACC 09                    2404 	add	hl, bc
      000ACD 4D                    2405 	ld	c, l
      000ACE 44                    2406 	ld	b, h
      000ACF 21rD3r02              2407 	ld	hl, #_yBall
      000AD2 79                    2408 	ld	a, c
      000AD3 96                    2409 	sub	a, (hl)
      000AD4 23                    2410 	inc	hl
      000AD5 78                    2411 	ld	a, b
      000AD6 9E                    2412 	sbc	a, (hl)
      000AD7 30 4B                 2413 	jr	NC, 00163$
      000AD9                       2414 00152$:
      000AD9 F8 00                 2415 	ldhl	sp,	#0
      000ADB 5D                    2416 	ld	e, l
      000ADC 54                    2417 	ld	d, h
      000ADD F8 0C                 2418 	ldhl	sp,	#12
      000ADF 1A                    2419 	ld	a, (de)
      000AE0 13                    2420 	inc	de
      000AE1 96                    2421 	sub	a, (hl)
      000AE2 23                    2422 	inc	hl
      000AE3 1A                    2423 	ld	a, (de)
      000AE4 9E                    2424 	sbc	a, (hl)
      000AE5 DAr9Ar0B              2425 	jp	C, 00164$
      000AE8 21r18r00              2426 	ld	hl, #(_AI + 10)
      000AEB 2A                    2427 	ld	a, (hl+)
      000AEC 4F                    2428 	ld	c, a
      000AED 46                    2429 	ld	b, (hl)
      000AEE F8 0E                 2430 	ldhl	sp,	#14
      000AF0 2A                    2431 	ld	a,	(hl+)
      000AF1 66                    2432 	ld	h, (hl)
      000AF2 6F                    2433 	ld	l, a
      000AF3 09                    2434 	add	hl, bc
      000AF4 4D                    2435 	ld	c, l
      000AF5 44                    2436 	ld	b, h
      000AF6 F8 00                 2437 	ldhl	sp,	#0
      000AF8 79                    2438 	ld	a, c
      000AF9 96                    2439 	sub	a, (hl)
      000AFA 23                    2440 	inc	hl
      000AFB 78                    2441 	ld	a, b
      000AFC 9E                    2442 	sbc	a, (hl)
      000AFD DAr9Ar0B              2443 	jp	C, 00164$
      000B00 21r15r00              2444 	ld	hl, #(_AI + 7)
      000B03 4E                    2445 	ld	c, (hl)
      000B04 41                    2446 	ld	b, c
      000B05 1E 00                 2447 	ld	e, #0x00
      000B07 F8 02                 2448 	ldhl	sp,	#2
      000B09 2A                    2449 	ld	a, (hl+)
      000B0A 90                    2450 	sub	a, b
      000B0B 7E                    2451 	ld	a, (hl)
      000B0C 9B                    2452 	sbc	a, e
      000B0D DAr9Ar0B              2453 	jp	C, 00164$
      000B10 06 00                 2454 	ld	b, #0x00
      000B12 21r16r00              2455 	ld	hl, #(_AI + 8)
      000B15 2A                    2456 	ld	a,	(hl+)
      000B16 66                    2457 	ld	h, (hl)
                                   2458 ;	spillPairReg hl
      000B17 6F                    2459 	ld	l, a
                                   2460 ;	spillPairReg hl
                                   2461 ;	spillPairReg hl
      000B18 09                    2462 	add	hl, bc
      000B19 4D                    2463 	ld	c, l
      000B1A 44                    2464 	ld	b, h
      000B1B F8 02                 2465 	ldhl	sp,	#2
      000B1D 79                    2466 	ld	a, c
      000B1E 96                    2467 	sub	a, (hl)
      000B1F 23                    2468 	inc	hl
      000B20 78                    2469 	ld	a, b
      000B21 9E                    2470 	sbc	a, (hl)
      000B22 38 76                 2471 	jr	C, 00164$
      000B24                       2472 00163$:
      000B24 21r18r00              2473 	ld	hl, #(_AI + 10)
      000B27 2A                    2474 	ld	a, (hl+)
      000B28 4F                    2475 	ld	c, a
      000B29 46                    2476 	ld	b, (hl)
      000B2A F8 0E                 2477 	ldhl	sp,	#14
      000B2C 2A                    2478 	ld	a,	(hl+)
      000B2D 66                    2479 	ld	h, (hl)
      000B2E 6F                    2480 	ld	l, a
      000B2F 09                    2481 	add	hl, bc
      000B30 4D                    2482 	ld	c, l
      000B31 44                    2483 	ld	b, h
      000B32 21rD1r02              2484 	ld	hl, #_xBall
      000B35 2A                    2485 	ld	a, (hl+)
      000B36 91                    2486 	sub	a, c
      000B37 7E                    2487 	ld	a, (hl)
      000B38 98                    2488 	sbc	a, b
      000B39 38 0E                 2489 	jr	C, 00160$
      000B3B F8 04                 2490 	ldhl	sp,	#4
      000B3D 7E                    2491 	ld	a, (hl)
      000B3E EArD1r02              2492 	ld	(#_xBall),a
      000B41 F8 05                 2493 	ldhl	sp,	#5
      000B43 7E                    2494 	ld	a, (hl)
      000B44 EArD2r02              2495 	ld	(#_xBall + 1),a
      000B47 18 54                 2496 	jr	00174$
      000B49                       2497 00160$:
      000B49 F8 0C                 2498 	ldhl	sp,	#12
      000B4B 5D                    2499 	ld	e, l
      000B4C 54                    2500 	ld	d, h
      000B4D 21rD1r02              2501 	ld	hl, #_xBall
      000B50 1A                    2502 	ld	a, (de)
      000B51 13                    2503 	inc	de
      000B52 96                    2504 	sub	a, (hl)
      000B53 23                    2505 	inc	hl
      000B54 1A                    2506 	ld	a, (de)
      000B55 9E                    2507 	sbc	a, (hl)
      000B56 38 0E                 2508 	jr	C, 00158$
      000B58 F8 06                 2509 	ldhl	sp,	#6
      000B5A 7E                    2510 	ld	a, (hl)
      000B5B EArD1r02              2511 	ld	(#_xBall),a
      000B5E F8 07                 2512 	ldhl	sp,	#7
      000B60 7E                    2513 	ld	a, (hl)
      000B61 EArD2r02              2514 	ld	(#_xBall + 1),a
      000B64 18 37                 2515 	jr	00174$
      000B66                       2516 00158$:
      000B66 FAr15r00              2517 	ld	a, (#(_AI + 7) + 0)
      000B69 4F                    2518 	ld	c, a
      000B6A 06 00                 2519 	ld	b, #0x00
      000B6C 21r16r00              2520 	ld	hl, #(_AI + 8)
      000B6F 2A                    2521 	ld	a,	(hl+)
      000B70 66                    2522 	ld	h, (hl)
                                   2523 ;	spillPairReg hl
      000B71 6F                    2524 	ld	l, a
                                   2525 ;	spillPairReg hl
                                   2526 ;	spillPairReg hl
      000B72 09                    2527 	add	hl, bc
      000B73 4D                    2528 	ld	c, l
      000B74 44                    2529 	ld	b, h
      000B75 21rD3r02              2530 	ld	hl, #_yBall
      000B78 2A                    2531 	ld	a, (hl+)
      000B79 91                    2532 	sub	a, c
      000B7A 7E                    2533 	ld	a, (hl)
      000B7B 98                    2534 	sbc	a, b
      000B7C 38 0E                 2535 	jr	C, 00156$
      000B7E F8 08                 2536 	ldhl	sp,	#8
      000B80 7E                    2537 	ld	a, (hl)
      000B81 EArD3r02              2538 	ld	(#_yBall),a
      000B84 F8 09                 2539 	ldhl	sp,	#9
      000B86 7E                    2540 	ld	a, (hl)
      000B87 EArD4r02              2541 	ld	(#_yBall + 1),a
      000B8A 18 11                 2542 	jr	00174$
      000B8C                       2543 00156$:
      000B8C F8 0A                 2544 	ldhl	sp,	#10
      000B8E 7E                    2545 	ld	a, (hl)
      000B8F EArD3r02              2546 	ld	(#_yBall),a
      000B92 F8 0B                 2547 	ldhl	sp,	#11
      000B94 7E                    2548 	ld	a, (hl)
      000B95 EArD4r02              2549 	ld	(#_yBall + 1),a
      000B98 18 03                 2550 	jr	00174$
      000B9A                       2551 00164$:
      000B9A AF                    2552 	xor	a, a
      000B9B 18 02                 2553 	jr	00175$
      000B9D                       2554 00174$:
      000B9D 3E 01                 2555 	ld	a, #0x01
      000B9F                       2556 00175$:
                                   2557 ;main.c:351: if(collisioned)
      000B9F B7                    2558 	or	a, a
      000BA0 CAr25r0C              2559 	jp	Z, 00107$
                                   2560 ;main.c:355: speed_y = (rand() % 10 - 5) * -1;
      000BA3 CDr00r00              2561 	call	_rand
      000BA6 16 00                 2562 	ld	d, #0x00
      000BA8 01 0A 00              2563 	ld	bc, #0x000a
      000BAB C5                    2564 	push	bc
      000BAC D5                    2565 	push	de
      000BAD CDr00r00              2566 	call	__modsint
      000BB0 E8 04                 2567 	add	sp, #4
      000BB2 7B                    2568 	ld	a, e
      000BB3 C6 FB                 2569 	add	a, #0xfb
      000BB5 4F                    2570 	ld	c, a
      000BB6 AF                    2571 	xor	a, a
      000BB7 91                    2572 	sub	a, c
      000BB8 EAr1Cr00              2573 	ld	(#_speed_y),a
                                   2574 ;main.c:356: if((speed_x > -4 && speed_x < 0) || (speed_x < 4 && speed_x > 0))
      000BBB 21r1Dr00              2575 	ld	hl, #_speed_x
      000BBE 5E                    2576 	ld	e, (hl)
      000BBF AF                    2577 	xor	a, a
      000BC0 57                    2578 	ld	d, a
      000BC1 96                    2579 	sub	a, (hl)
      000BC2 CB 7B                 2580 	bit	7, e
      000BC4 28 07                 2581 	jr	Z, 00338$
      000BC6 CB 7A                 2582 	bit	7, d
      000BC8 20 08                 2583 	jr	NZ, 00339$
      000BCA BF                    2584 	cp	a, a
      000BCB 18 05                 2585 	jr	00339$
      000BCD                       2586 00338$:
      000BCD CB 7A                 2587 	bit	7, d
      000BCF 28 01                 2588 	jr	Z, 00339$
      000BD1 37                    2589 	scf
      000BD2                       2590 00339$:
      000BD2 3E 00                 2591 	ld	a, #0x00
      000BD4 17                    2592 	rla
      000BD5 4F                    2593 	ld	c, a
      000BD6 21r1Dr00              2594 	ld	hl, #_speed_x
      000BD9 5E                    2595 	ld	e, (hl)
      000BDA 3E FC                 2596 	ld	a,#0xfc
      000BDC 57                    2597 	ld	d,a
      000BDD 96                    2598 	sub	a, (hl)
      000BDE CB 7B                 2599 	bit	7, e
      000BE0 28 07                 2600 	jr	Z, 00340$
      000BE2 CB 7A                 2601 	bit	7, d
      000BE4 20 08                 2602 	jr	NZ, 00341$
      000BE6 BF                    2603 	cp	a, a
      000BE7 18 05                 2604 	jr	00341$
      000BE9                       2605 00340$:
      000BE9 CB 7A                 2606 	bit	7, d
      000BEB 28 01                 2607 	jr	Z, 00341$
      000BED 37                    2608 	scf
      000BEE                       2609 00341$:
      000BEE 30 07                 2610 	jr	NC, 00105$
      000BF0 FAr1Dr00              2611 	ld	a, (#_speed_x)
      000BF3 CB 7F                 2612 	bit	7, a
      000BF5 20 0D                 2613 	jr	NZ, 00101$
      000BF7                       2614 00105$:
      000BF7 FAr1Dr00              2615 	ld	a, (#_speed_x)
      000BFA EE 80                 2616 	xor	a, #0x80
      000BFC D6 84                 2617 	sub	a, #0x84
      000BFE 30 12                 2618 	jr	NC, 00102$
      000C00 79                    2619 	ld	a, c
      000C01 B7                    2620 	or	a, a
      000C02 28 0E                 2621 	jr	Z, 00102$
      000C04                       2622 00101$:
                                   2623 ;main.c:358: speed_x > 0 ? ++speed_x : --speed_x;        //  Acceleration
      000C04 79                    2624 	ld	a, c
      000C05 B7                    2625 	or	a, a
      000C06 28 06                 2626 	jr	Z, 00176$
      000C08 21r1Dr00              2627 	ld	hl, #_speed_x
      000C0B 34                    2628 	inc	(hl)
      000C0C 18 04                 2629 	jr	00102$
      000C0E                       2630 00176$:
      000C0E 21r1Dr00              2631 	ld	hl, #_speed_x
      000C11 35                    2632 	dec	(hl)
      000C12                       2633 00102$:
                                   2634 ;main.c:361: speed_x *= -1;
      000C12 AF                    2635 	xor	a, a
      000C13 21r1Dr00              2636 	ld	hl, #_speed_x
      000C16 96                    2637 	sub	a, (hl)
      000C17 77                    2638 	ld	(hl), a
                                   2639 ;main.c:363: canAImove = !canAImove;
      000C18 21rD5r02              2640 	ld	hl, #_canAImove
      000C1B 7E                    2641 	ld	a, (hl)
      000C1C D6 01                 2642 	sub	a,#0x01
      000C1E 3E 00                 2643 	ld	a, #0x00
      000C20 17                    2644 	rla
      000C21 77                    2645 	ld	(hl), a
                                   2646 ;main.c:367: play_jumpy_sound();
      000C22 CDr3Fr03              2647 	call	_play_jumpy_sound
      000C25                       2648 00107$:
                                   2649 ;main.c:372: speed_y *= -1;
      000C25 AF                    2650 	xor	a, a
      000C26 21r1Cr00              2651 	ld	hl, #_speed_y
      000C29 96                    2652 	sub	a, (hl)
      000C2A 4F                    2653 	ld	c, a
                                   2654 ;main.c:370: if(yBall <= 20)
      000C2B 21rD3r02              2655 	ld	hl, #_yBall
      000C2E 3E 14                 2656 	ld	a, #0x14
      000C30 96                    2657 	sub	a, (hl)
      000C31 23                    2658 	inc	hl
      000C32 3E 00                 2659 	ld	a, #0x00
      000C34 9E                    2660 	sbc	a, (hl)
      000C35 38 06                 2661 	jr	C, 00111$
                                   2662 ;main.c:372: speed_y *= -1;
      000C37 21r1Cr00              2663 	ld	hl, #_speed_y
      000C3A 71                    2664 	ld	(hl), c
      000C3B 18 0F                 2665 	jr	00112$
      000C3D                       2666 00111$:
                                   2667 ;main.c:374: else if(yBall >= SCREENHEIGHT)
      000C3D 21rD3r02              2668 	ld	hl, #_yBall
      000C40 2A                    2669 	ld	a, (hl+)
      000C41 D6 90                 2670 	sub	a, #0x90
      000C43 7E                    2671 	ld	a, (hl)
      000C44 DE 00                 2672 	sbc	a, #0x00
      000C46 38 04                 2673 	jr	C, 00112$
                                   2674 ;main.c:376: speed_y *= -1;
      000C48 21r1Cr00              2675 	ld	hl, #_speed_y
      000C4B 71                    2676 	ld	(hl), c
      000C4C                       2677 00112$:
                                   2678 ;main.c:381: if((xBall >= player.x + player.width + 2))
      000C4C FAr06r00              2679 	ld	a, (#(_player + 6) + 0)
      000C4F 4F                    2680 	ld	c, a
      000C50 06 00                 2681 	ld	b, #0x00
      000C52 21r0Ar00              2682 	ld	hl, #_player + 10
      000C55 2A                    2683 	ld	a,	(hl+)
      000C56 66                    2684 	ld	h, (hl)
                                   2685 ;	spillPairReg hl
      000C57 6F                    2686 	ld	l, a
                                   2687 ;	spillPairReg hl
                                   2688 ;	spillPairReg hl
      000C58 09                    2689 	add	hl, bc
      000C59 23                    2690 	inc	hl
      000C5A 23                    2691 	inc	hl
      000C5B 4D                    2692 	ld	c, l
      000C5C 44                    2693 	ld	b, h
      000C5D 21rD1r02              2694 	ld	hl, #_xBall
      000C60 2A                    2695 	ld	a, (hl+)
      000C61 91                    2696 	sub	a, c
      000C62 7E                    2697 	ld	a, (hl)
      000C63 98                    2698 	sbc	a, b
      000C64 38 2B                 2699 	jr	C, 00116$
                                   2700 ;main.c:383: AI.score++;
      000C66 21r1Ar00              2701 	ld	hl, #(_AI + 12)
      000C69 2A                    2702 	ld	a, (hl+)
      000C6A 4F                    2703 	ld	c, a
      000C6B 46                    2704 	ld	b, (hl)
      000C6C 03                    2705 	inc	bc
      000C6D 21r1Ar00              2706 	ld	hl, #(_AI + 12)
      000C70 79                    2707 	ld	a, c
      000C71 22                    2708 	ld	(hl+), a
      000C72 70                    2709 	ld	(hl), b
                                   2710 ;main.c:384: update_score(AI.score, AI_TILE_LOCATION);
      000C73 3E 01                 2711 	ld	a, #0x01
      000C75 F5                    2712 	push	af
      000C76 33                    2713 	inc	sp
      000C77 C5                    2714 	push	bc
      000C78 CDrC7r05              2715 	call	_update_score
      000C7B E8 03                 2716 	add	sp, #3
                                   2717 ;main.c:385: play_score();
      000C7D CDr54r03              2718 	call	_play_score
                                   2719 ;main.c:320: timer = FRAMES_TO_WAIT;
      000C80 21rD6r02              2720 	ld	hl, #_timer
      000C83 36 0A                 2721 	ld	(hl), #0x0a
                                   2722 ;main.c:321: ball_alive = 0;
      000C85 21r20r00              2723 	ld	hl, #_ball_alive
      000C88 36 00                 2724 	ld	(hl), #0x00
                                   2725 ;c:/gbdk/include/gb/gb.h:1447: shadow_OAM[nb].tile=tile;
      000C8A 21r1Ar00              2726 	ld	hl, #(_shadow_OAM + 26)
      000C8D 36 FF                 2727 	ld	(hl), #0xff
                                   2728 ;main.c:387: kill_ball();
      000C8F 18 3B                 2729 	jr	00117$
      000C91                       2730 00116$:
                                   2731 ;main.c:391: else if((xBall <= AI.x - 2))
      000C91 FAr14r00              2732 	ld	a, (#(_AI + 6) + 0)
      000C94 06 00                 2733 	ld	b, #0x00
      000C96 4F                    2734 	ld	c, a
      000C97 0B                    2735 	dec	bc
      000C98 0B                    2736 	dec	bc
      000C99 21rD1r02              2737 	ld	hl, #_xBall
      000C9C 79                    2738 	ld	a, c
      000C9D 96                    2739 	sub	a, (hl)
      000C9E 23                    2740 	inc	hl
      000C9F 78                    2741 	ld	a, b
      000CA0 9E                    2742 	sbc	a, (hl)
      000CA1 38 29                 2743 	jr	C, 00117$
                                   2744 ;main.c:393: player.score++;
      000CA3 21r0Cr00              2745 	ld	hl, #(_player + 12)
      000CA6 2A                    2746 	ld	a, (hl+)
      000CA7 4F                    2747 	ld	c, a
      000CA8 46                    2748 	ld	b, (hl)
      000CA9 03                    2749 	inc	bc
      000CAA 21r0Cr00              2750 	ld	hl, #(_player + 12)
      000CAD 79                    2751 	ld	a, c
      000CAE 22                    2752 	ld	(hl+), a
      000CAF 70                    2753 	ld	(hl), b
                                   2754 ;main.c:394: update_score(player.score, PLAYER_TILE_LOCATION);
      000CB0 3E 11                 2755 	ld	a, #0x11
      000CB2 F5                    2756 	push	af
      000CB3 33                    2757 	inc	sp
      000CB4 C5                    2758 	push	bc
      000CB5 CDrC7r05              2759 	call	_update_score
      000CB8 E8 03                 2760 	add	sp, #3
                                   2761 ;main.c:395: play_score();
      000CBA CDr54r03              2762 	call	_play_score
                                   2763 ;main.c:320: timer = FRAMES_TO_WAIT;
      000CBD 21rD6r02              2764 	ld	hl, #_timer
      000CC0 36 0A                 2765 	ld	(hl), #0x0a
                                   2766 ;main.c:321: ball_alive = 0;
      000CC2 21r20r00              2767 	ld	hl, #_ball_alive
      000CC5 36 00                 2768 	ld	(hl), #0x00
                                   2769 ;c:/gbdk/include/gb/gb.h:1447: shadow_OAM[nb].tile=tile;
      000CC7 21r1Ar00              2770 	ld	hl, #(_shadow_OAM + 26)
      000CCA 36 FF                 2771 	ld	(hl), #0xff
                                   2772 ;main.c:397: kill_ball();
      000CCC                       2773 00117$:
                                   2774 ;main.c:402: xBall += speed_x;
      000CCC FAr1Dr00              2775 	ld	a, (#_speed_x)
      000CCF 4F                    2776 	ld	c, a
      000CD0 07                    2777 	rlca
      000CD1 9F                    2778 	sbc	a, a
      000CD2 47                    2779 	ld	b, a
      000CD3 21rD1r02              2780 	ld	hl, #_xBall
      000CD6 7E                    2781 	ld	a, (hl)
      000CD7 81                    2782 	add	a, c
      000CD8 22                    2783 	ld	(hl+), a
      000CD9 7E                    2784 	ld	a, (hl)
      000CDA 88                    2785 	adc	a, b
      000CDB 77                    2786 	ld	(hl), a
                                   2787 ;main.c:403: yBall += speed_y;
      000CDC FAr1Cr00              2788 	ld	a, (#_speed_y)
      000CDF 4F                    2789 	ld	c, a
      000CE0 07                    2790 	rlca
      000CE1 9F                    2791 	sbc	a, a
      000CE2 47                    2792 	ld	b, a
      000CE3 21rD3r02              2793 	ld	hl, #_yBall
      000CE6 7E                    2794 	ld	a, (hl)
      000CE7 81                    2795 	add	a, c
      000CE8 22                    2796 	ld	(hl+), a
      000CE9 7E                    2797 	ld	a, (hl)
      000CEA 88                    2798 	adc	a, b
                                   2799 ;main.c:404: ballCentre = yBall + 4;
      000CEB 32                    2800 	ld	(hl-), a
      000CEC 4E                    2801 	ld	c, (hl)
      000CED 79                    2802 	ld	a, c
      000CEE C6 04                 2803 	add	a, #0x04
      000CF0 EAr1Fr00              2804 	ld	(#_ballCentre),a
                                   2805 ;main.c:406: move_sprite(BALL_SPRITE, xBall, yBall);
      000CF3 21rD1r02              2806 	ld	hl, #_xBall
      000CF6 46                    2807 	ld	b, (hl)
                                   2808 ;c:/gbdk/include/gb/gb.h:1520: OAM_item_t * itm = &shadow_OAM[nb];
      000CF7 21r18r00              2809 	ld	hl, #(_shadow_OAM + 24)
                                   2810 ;c:/gbdk/include/gb/gb.h:1521: itm->y=y, itm->x=x;
      000CFA 79                    2811 	ld	a, c
      000CFB 22                    2812 	ld	(hl+), a
      000CFC 70                    2813 	ld	(hl), b
                                   2814 ;main.c:407: wait_vbl_done();
      000CFD CDr00r00              2815 	call	_wait_vbl_done
                                   2816 ;main.c:408: }
      000D00 E8 10                 2817 	add	sp, #16
      000D02 C9                    2818 	ret
                                   2819 ;main.c:411: void main()
                                   2820 ;	---------------------------------
                                   2821 ; Function main
                                   2822 ; ---------------------------------
      000D03                       2823 _main::
                                   2824 ;main.c:414: start_game();
      000D03 CDrF6r04              2825 	call	_start_game
                                   2826 ;main.c:417: init_score();
      000D06 CDr9Ar05              2827 	call	_init_score
                                   2828 ;main.c:419: set_sprite_data(0, 4, character);
      000D09 11r8Fr00              2829 	ld	de, #_character
      000D0C D5                    2830 	push	de
      000D0D 21 00 04              2831 	ld	hl, #0x400
      000D10 E5                    2832 	push	hl
      000D11 CDr00r00              2833 	call	_set_sprite_data
      000D14 E8 04                 2834 	add	sp, #4
                                   2835 ;main.c:421: init_player();
      000D16 CDr7Cr06              2836 	call	_init_player
                                   2837 ;main.c:422: init_AI();
      000D19 CDrD8r06              2838 	call	_init_AI
                                   2839 ;main.c:423: init_ball();
      000D1C CDr4Ar07              2840 	call	_init_ball
                                   2841 ;main.c:426: SHOW_SPRITES;
      000D1F F0r00                 2842 	ldh	a, (_LCDC_REG + 0)
      000D21 F6 02                 2843 	or	a, #0x02
      000D23 E0r00                 2844 	ldh	(_LCDC_REG + 0), a
                                   2845 ;main.c:428: SHOW_BKG;
      000D25 F0r00                 2846 	ldh	a, (_LCDC_REG + 0)
      000D27 F6 01                 2847 	or	a, #0x01
      000D29 E0r00                 2848 	ldh	(_LCDC_REG + 0), a
                                   2849 ;main.c:430: waitpad(J_START);
      000D2B 3E 80                 2850 	ld	a, #0x80
      000D2D F5                    2851 	push	af
      000D2E 33                    2852 	inc	sp
      000D2F CDr00r00              2853 	call	_waitpad
      000D32 33                    2854 	inc	sp
                                   2855 ;utils/tools.c:233: uint16_t seed = LY_REG;
      000D33 F0r00                 2856 	ldh	a, (_LY_REG + 0)
      000D35 4F                    2857 	ld	c, a
      000D36 06 00                 2858 	ld	b, #0x00
                                   2859 ;utils/tools.c:234: seed |= (uint16_t)DIV_REG << 8;
      000D38 F0r00                 2860 	ldh	a, (_DIV_REG + 0)
      000D3A 5F                    2861 	ld	e, a
      000D3B AF                    2862 	xor	a, a
      000D3C B1                    2863 	or	a, c
      000D3D 4F                    2864 	ld	c, a
      000D3E 7B                    2865 	ld	a, e
      000D3F B0                    2866 	or	a, b
      000D40 47                    2867 	ld	b, a
                                   2868 ;utils/tools.c:235: initrand(seed);
      000D41 C5                    2869 	push	bc
      000D42 CDr00r00              2870 	call	_initrand
      000D45 E1                    2871 	pop	hl
                                   2872 ;main.c:433: while(1)
      000D46                       2873 00115$:
                                   2874 ;main.c:436: if(ball_alive)
      000D46 FAr20r00              2875 	ld	a, (#_ball_alive)
      000D49 B7                    2876 	or	a, a
      000D4A 28 05                 2877 	jr	Z, 00109$
                                   2878 ;main.c:438: ball_movement();
      000D4C CDr93r08              2879 	call	_ball_movement
      000D4F 18 6B                 2880 	jr	00110$
      000D51                       2881 00109$:
                                   2882 ;main.c:440: else if(!ball_alive && !timer)
      000D51 FAr20r00              2883 	ld	a, (#_ball_alive)
      000D54 B7                    2884 	or	a, a
      000D55 20 57                 2885 	jr	NZ, 00105$
      000D57 FArD6r02              2886 	ld	a, (#_timer)
      000D5A B7                    2887 	or	a, a
      000D5B 20 51                 2888 	jr	NZ, 00105$
                                   2889 ;main.c:330: xBall = MIDX;
      000D5D 21rD1r02              2890 	ld	hl, #_xBall
      000D60 3E 50                 2891 	ld	a, #0x50
      000D62 22                    2892 	ld	(hl+), a
      000D63 AF                    2893 	xor	a, a
      000D64 77                    2894 	ld	(hl), a
                                   2895 ;main.c:331: yBall = MIDY + SPRITE_HEIGHT;
      000D65 21rD3r02              2896 	ld	hl, #_yBall
      000D68 3E 50                 2897 	ld	a, #0x50
      000D6A 22                    2898 	ld	(hl+), a
      000D6B AF                    2899 	xor	a, a
      000D6C 77                    2900 	ld	(hl), a
                                   2901 ;main.c:333: ballCentre = yBall + 4;
      000D6D 21r1Fr00              2902 	ld	hl, #_ballCentre
      000D70 36 54                 2903 	ld	(hl), #0x54
                                   2904 ;main.c:335: speed_y = (rand() % 10 - 5);
      000D72 CDr00r00              2905 	call	_rand
      000D75 16 00                 2906 	ld	d, #0x00
      000D77 01 0A 00              2907 	ld	bc, #0x000a
      000D7A C5                    2908 	push	bc
      000D7B D5                    2909 	push	de
      000D7C CDr00r00              2910 	call	__modsint
      000D7F E8 04                 2911 	add	sp, #4
      000D81 7B                    2912 	ld	a, e
      000D82 C6 FB                 2913 	add	a, #0xfb
      000D84 EAr1Cr00              2914 	ld	(#_speed_y),a
                                   2915 ;main.c:336: speed_x = 1;
      000D87 21r1Dr00              2916 	ld	hl, #_speed_x
      000D8A 36 01                 2917 	ld	(hl), #0x01
                                   2918 ;main.c:338: canAImove = 0;
      000D8C 21rD5r02              2919 	ld	hl, #_canAImove
      000D8F 36 00                 2920 	ld	(hl), #0x00
                                   2921 ;main.c:340: set_sprite_tile(BALL_SPRITE, ball);
      000D91 21rA4r04              2922 	ld	hl, #_ball
      000D94 4E                    2923 	ld	c, (hl)
                                   2924 ;c:/gbdk/include/gb/gb.h:1447: shadow_OAM[nb].tile=tile;
      000D95 21r1Ar00              2925 	ld	hl, #(_shadow_OAM + 26)
      000D98 71                    2926 	ld	(hl), c
                                   2927 ;main.c:342: move_sprite(BALL_SPRITE, xBall, yBall);
      000D99 21rD3r02              2928 	ld	hl, #_yBall
      000D9C 46                    2929 	ld	b, (hl)
      000D9D 21rD1r02              2930 	ld	hl, #_xBall
      000DA0 4E                    2931 	ld	c, (hl)
                                   2932 ;c:/gbdk/include/gb/gb.h:1520: OAM_item_t * itm = &shadow_OAM[nb];
      000DA1 21r18r00              2933 	ld	hl, #(_shadow_OAM + 24)
                                   2934 ;c:/gbdk/include/gb/gb.h:1521: itm->y=y, itm->x=x;
      000DA4 78                    2935 	ld	a, b
      000DA5 22                    2936 	ld	(hl+), a
      000DA6 71                    2937 	ld	(hl), c
                                   2938 ;main.c:443: ball_alive = 1;
      000DA7 21r20r00              2939 	ld	hl, #_ball_alive
      000DAA 36 01                 2940 	ld	(hl), #0x01
      000DAC 18 0E                 2941 	jr	00110$
      000DAE                       2942 00105$:
                                   2943 ;main.c:445: else if(!ball_alive && timer)
      000DAE FAr20r00              2944 	ld	a, (#_ball_alive)
      000DB1 B7                    2945 	or	a, a
      000DB2 20 08                 2946 	jr	NZ, 00110$
      000DB4 21rD6r02              2947 	ld	hl, #_timer
      000DB7 7E                    2948 	ld	a, (hl)
      000DB8 B7                    2949 	or	a, a
      000DB9 28 01                 2950 	jr	Z, 00110$
                                   2951 ;main.c:447: --timer;
      000DBB 35                    2952 	dec	(hl)
      000DBC                       2953 00110$:
                                   2954 ;main.c:450: movement();
      000DBC CDr85r07              2955 	call	_movement
                                   2956 ;main.c:452: if(ball_alive && canAImove)
      000DBF FAr20r00              2957 	ld	a, (#_ball_alive)
      000DC2 B7                    2958 	or	a, a
      000DC3 28 0E                 2959 	jr	Z, 00137$
      000DC5 FArD5r02              2960 	ld	a, (#_canAImove)
      000DC8 B7                    2961 	or	a, a
      000DC9 28 08                 2962 	jr	Z, 00137$
                                   2963 ;main.c:454: ai_movement(0, 4);
      000DCB 21 00 04              2964 	ld	hl, #0x400
      000DCE E5                    2965 	push	hl
      000DCF CDrCAr07              2966 	call	_ai_movement
      000DD2 E1                    2967 	pop	hl
                                   2968 ;main.c:52: {
      000DD3                       2969 00137$:
      000DD3 01 00 00              2970 	ld	bc, #0x0000
      000DD6                       2971 00124$:
      000DD6 79                    2972 	ld	a, c
      000DD7 D6 01                 2973 	sub	a, #0x01
      000DD9 78                    2974 	ld	a, b
      000DDA DE 00                 2975 	sbc	a, #0x00
      000DDC D2r46r0D              2976 	jp	NC, 00115$
                                   2977 ;utils/tools.c:53: wait_vbl_done();
      000DDF CDr00r00              2978 	call	_wait_vbl_done
                                   2979 ;utils/tools.c:52: for(i = 0; i < loops; i++){
      000DE2 03                    2980 	inc	bc
                                   2981 ;main.c:465: performanceDelay(1);        //  More fluid but you gotta modify the speeds
                                   2982 ;main.c:470: }
      000DE3 18 F1                 2983 	jr	00124$
                                   2984 	.area _CODE
                                   2985 	.area _INITIALIZER
      000000                       2986 __xinit__clearBKGTiles:
      000000 00                    2987 	.db #0x00	; 0
      000001 00                    2988 	.db #0x00	; 0
      000002 00                    2989 	.db #0x00	; 0
      000003 00                    2990 	.db #0x00	; 0
      000004 00                    2991 	.db #0x00	; 0
      000005 00                    2992 	.db #0x00	; 0
      000006 00                    2993 	.db #0x00	; 0
      000007 00                    2994 	.db #0x00	; 0
      000008 00                    2995 	.db #0x00	; 0
      000009 00                    2996 	.db #0x00	; 0
      00000A 00                    2997 	.db #0x00	; 0
      00000B 00                    2998 	.db #0x00	; 0
      00000C 00                    2999 	.db #0x00	; 0
      00000D 00                    3000 	.db #0x00	; 0
      00000E 00                    3001 	.db #0x00	; 0
      00000F 00                    3002 	.db #0x00	; 0
      000010 00                    3003 	.db #0x00	; 0
      000011 00                    3004 	.db #0x00	; 0
      000012 00                    3005 	.db #0x00	; 0
      000013 00                    3006 	.db #0x00	; 0
      000014 00                    3007 	.db #0x00	; 0
      000015 00                    3008 	.db #0x00	; 0
      000016 00                    3009 	.db #0x00	; 0
      000017 00                    3010 	.db #0x00	; 0
      000018 00                    3011 	.db #0x00	; 0
      000019 00                    3012 	.db #0x00	; 0
      00001A 00                    3013 	.db #0x00	; 0
      00001B 00                    3014 	.db #0x00	; 0
      00001C 00                    3015 	.db #0x00	; 0
      00001D 00                    3016 	.db #0x00	; 0
      00001E 00                    3017 	.db #0x00	; 0
      00001F 00                    3018 	.db #0x00	; 0
      000020 00                    3019 	.db #0x00	; 0
      000021 00                    3020 	.db #0x00	; 0
      000022 00                    3021 	.db #0x00	; 0
      000023 00                    3022 	.db #0x00	; 0
      000024 00                    3023 	.db #0x00	; 0
      000025 00                    3024 	.db #0x00	; 0
      000026 00                    3025 	.db #0x00	; 0
      000027 00                    3026 	.db #0x00	; 0
      000028 00                    3027 	.db #0x00	; 0
      000029 00                    3028 	.db #0x00	; 0
      00002A 00                    3029 	.db #0x00	; 0
      00002B 00                    3030 	.db #0x00	; 0
      00002C 00                    3031 	.db #0x00	; 0
      00002D 00                    3032 	.db #0x00	; 0
      00002E 00                    3033 	.db #0x00	; 0
      00002F 00                    3034 	.db #0x00	; 0
      000030 00                    3035 	.db #0x00	; 0
      000031 00                    3036 	.db #0x00	; 0
      000032 00                    3037 	.db #0x00	; 0
      000033 00                    3038 	.db #0x00	; 0
      000034 00                    3039 	.db #0x00	; 0
      000035 00                    3040 	.db #0x00	; 0
      000036 00                    3041 	.db #0x00	; 0
      000037 00                    3042 	.db #0x00	; 0
      000038 00                    3043 	.db #0x00	; 0
      000039 00                    3044 	.db #0x00	; 0
      00003A 00                    3045 	.db #0x00	; 0
      00003B 00                    3046 	.db #0x00	; 0
      00003C 00                    3047 	.db #0x00	; 0
      00003D 00                    3048 	.db #0x00	; 0
      00003E 00                    3049 	.db #0x00	; 0
      00003F 00                    3050 	.db #0x00	; 0
      000040 00                    3051 	.db #0x00	; 0
      000041 00                    3052 	.db #0x00	; 0
      000042 00                    3053 	.db #0x00	; 0
      000043 00                    3054 	.db #0x00	; 0
      000044 00                    3055 	.db #0x00	; 0
      000045 00                    3056 	.db #0x00	; 0
      000046 00                    3057 	.db #0x00	; 0
      000047 00                    3058 	.db #0x00	; 0
      000048 00                    3059 	.db #0x00	; 0
      000049 00                    3060 	.db #0x00	; 0
      00004A 00                    3061 	.db #0x00	; 0
      00004B 00                    3062 	.db #0x00	; 0
      00004C 00                    3063 	.db #0x00	; 0
      00004D 00                    3064 	.db #0x00	; 0
      00004E 00                    3065 	.db #0x00	; 0
      00004F 00                    3066 	.db #0x00	; 0
      000050 00                    3067 	.db #0x00	; 0
      000051 00                    3068 	.db #0x00	; 0
      000052 00                    3069 	.db #0x00	; 0
      000053 00                    3070 	.db #0x00	; 0
      000054 00                    3071 	.db #0x00	; 0
      000055 00                    3072 	.db #0x00	; 0
      000056 00                    3073 	.db #0x00	; 0
      000057 00                    3074 	.db #0x00	; 0
      000058 00                    3075 	.db #0x00	; 0
      000059 00                    3076 	.db #0x00	; 0
      00005A 00                    3077 	.db #0x00	; 0
      00005B 00                    3078 	.db #0x00	; 0
      00005C 00                    3079 	.db #0x00	; 0
      00005D 00                    3080 	.db #0x00	; 0
      00005E 00                    3081 	.db #0x00	; 0
      00005F 00                    3082 	.db #0x00	; 0
      000060 00                    3083 	.db #0x00	; 0
      000061 00                    3084 	.db #0x00	; 0
      000062 00                    3085 	.db #0x00	; 0
      000063 00                    3086 	.db #0x00	; 0
      000064 00                    3087 	.db #0x00	; 0
      000065 00                    3088 	.db #0x00	; 0
      000066 00                    3089 	.db #0x00	; 0
      000067 00                    3090 	.db #0x00	; 0
      000068 00                    3091 	.db #0x00	; 0
      000069 00                    3092 	.db #0x00	; 0
      00006A 00                    3093 	.db #0x00	; 0
      00006B 00                    3094 	.db #0x00	; 0
      00006C 00                    3095 	.db #0x00	; 0
      00006D 00                    3096 	.db #0x00	; 0
      00006E 00                    3097 	.db #0x00	; 0
      00006F 00                    3098 	.db #0x00	; 0
      000070 00                    3099 	.db #0x00	; 0
      000071 00                    3100 	.db #0x00	; 0
      000072 00                    3101 	.db #0x00	; 0
      000073 00                    3102 	.db #0x00	; 0
      000074 00                    3103 	.db #0x00	; 0
      000075 00                    3104 	.db #0x00	; 0
      000076 00                    3105 	.db #0x00	; 0
      000077 00                    3106 	.db #0x00	; 0
      000078 00                    3107 	.db #0x00	; 0
      000079 00                    3108 	.db #0x00	; 0
      00007A 00                    3109 	.db #0x00	; 0
      00007B 00                    3110 	.db #0x00	; 0
      00007C 00                    3111 	.db #0x00	; 0
      00007D 00                    3112 	.db #0x00	; 0
      00007E 00                    3113 	.db #0x00	; 0
      00007F 00                    3114 	.db #0x00	; 0
      000080 00                    3115 	.db #0x00	; 0
      000081 00                    3116 	.db #0x00	; 0
      000082 00                    3117 	.db #0x00	; 0
      000083 00                    3118 	.db #0x00	; 0
      000084 00                    3119 	.db #0x00	; 0
      000085 00                    3120 	.db #0x00	; 0
      000086 00                    3121 	.db #0x00	; 0
      000087 00                    3122 	.db #0x00	; 0
      000088 00                    3123 	.db #0x00	; 0
      000089 00                    3124 	.db #0x00	; 0
      00008A 00                    3125 	.db #0x00	; 0
      00008B 00                    3126 	.db #0x00	; 0
      00008C 00                    3127 	.db #0x00	; 0
      00008D 00                    3128 	.db #0x00	; 0
      00008E 00                    3129 	.db #0x00	; 0
      00008F 00                    3130 	.db #0x00	; 0
      000090 00                    3131 	.db #0x00	; 0
      000091 00                    3132 	.db #0x00	; 0
      000092 00                    3133 	.db #0x00	; 0
      000093 00                    3134 	.db #0x00	; 0
      000094 00                    3135 	.db #0x00	; 0
      000095 00                    3136 	.db #0x00	; 0
      000096 00                    3137 	.db #0x00	; 0
      000097 00                    3138 	.db #0x00	; 0
      000098 00                    3139 	.db #0x00	; 0
      000099 00                    3140 	.db #0x00	; 0
      00009A 00                    3141 	.db #0x00	; 0
      00009B 00                    3142 	.db #0x00	; 0
      00009C 00                    3143 	.db #0x00	; 0
      00009D 00                    3144 	.db #0x00	; 0
      00009E 00                    3145 	.db #0x00	; 0
      00009F 00                    3146 	.db #0x00	; 0
      0000A0 00                    3147 	.db #0x00	; 0
      0000A1 00                    3148 	.db #0x00	; 0
      0000A2 00                    3149 	.db #0x00	; 0
      0000A3 00                    3150 	.db #0x00	; 0
      0000A4 00                    3151 	.db #0x00	; 0
      0000A5 00                    3152 	.db #0x00	; 0
      0000A6 00                    3153 	.db #0x00	; 0
      0000A7 00                    3154 	.db #0x00	; 0
      0000A8 00                    3155 	.db #0x00	; 0
      0000A9 00                    3156 	.db #0x00	; 0
      0000AA 00                    3157 	.db #0x00	; 0
      0000AB 00                    3158 	.db #0x00	; 0
      0000AC 00                    3159 	.db #0x00	; 0
      0000AD 00                    3160 	.db #0x00	; 0
      0000AE 00                    3161 	.db #0x00	; 0
      0000AF 00                    3162 	.db #0x00	; 0
      0000B0 00                    3163 	.db #0x00	; 0
      0000B1 00                    3164 	.db #0x00	; 0
      0000B2 00                    3165 	.db #0x00	; 0
      0000B3 00                    3166 	.db #0x00	; 0
      0000B4 00                    3167 	.db #0x00	; 0
      0000B5 00                    3168 	.db #0x00	; 0
      0000B6 00                    3169 	.db #0x00	; 0
      0000B7 00                    3170 	.db #0x00	; 0
      0000B8 00                    3171 	.db #0x00	; 0
      0000B9 00                    3172 	.db #0x00	; 0
      0000BA 00                    3173 	.db #0x00	; 0
      0000BB 00                    3174 	.db #0x00	; 0
      0000BC 00                    3175 	.db #0x00	; 0
      0000BD 00                    3176 	.db #0x00	; 0
      0000BE 00                    3177 	.db #0x00	; 0
      0000BF 00                    3178 	.db #0x00	; 0
      0000C0 00                    3179 	.db #0x00	; 0
      0000C1 00                    3180 	.db #0x00	; 0
      0000C2 00                    3181 	.db #0x00	; 0
      0000C3 00                    3182 	.db #0x00	; 0
      0000C4 00                    3183 	.db #0x00	; 0
      0000C5 00                    3184 	.db #0x00	; 0
      0000C6 00                    3185 	.db #0x00	; 0
      0000C7 00                    3186 	.db #0x00	; 0
      0000C8 00                    3187 	.db #0x00	; 0
      0000C9 00                    3188 	.db #0x00	; 0
      0000CA 00                    3189 	.db #0x00	; 0
      0000CB 00                    3190 	.db #0x00	; 0
      0000CC 00                    3191 	.db #0x00	; 0
      0000CD 00                    3192 	.db #0x00	; 0
      0000CE 00                    3193 	.db #0x00	; 0
      0000CF 00                    3194 	.db #0x00	; 0
      0000D0 00                    3195 	.db #0x00	; 0
      0000D1 00                    3196 	.db #0x00	; 0
      0000D2 00                    3197 	.db #0x00	; 0
      0000D3 00                    3198 	.db #0x00	; 0
      0000D4 00                    3199 	.db #0x00	; 0
      0000D5 00                    3200 	.db #0x00	; 0
      0000D6 00                    3201 	.db #0x00	; 0
      0000D7 00                    3202 	.db #0x00	; 0
      0000D8 00                    3203 	.db #0x00	; 0
      0000D9 00                    3204 	.db #0x00	; 0
      0000DA 00                    3205 	.db #0x00	; 0
      0000DB 00                    3206 	.db #0x00	; 0
      0000DC 00                    3207 	.db #0x00	; 0
      0000DD 00                    3208 	.db #0x00	; 0
      0000DE 00                    3209 	.db #0x00	; 0
      0000DF 00                    3210 	.db #0x00	; 0
      0000E0 00                    3211 	.db #0x00	; 0
      0000E1 00                    3212 	.db #0x00	; 0
      0000E2 00                    3213 	.db #0x00	; 0
      0000E3 00                    3214 	.db #0x00	; 0
      0000E4 00                    3215 	.db #0x00	; 0
      0000E5 00                    3216 	.db #0x00	; 0
      0000E6 00                    3217 	.db #0x00	; 0
      0000E7 00                    3218 	.db #0x00	; 0
      0000E8 00                    3219 	.db #0x00	; 0
      0000E9 00                    3220 	.db #0x00	; 0
      0000EA 00                    3221 	.db #0x00	; 0
      0000EB 00                    3222 	.db #0x00	; 0
      0000EC 00                    3223 	.db #0x00	; 0
      0000ED 00                    3224 	.db #0x00	; 0
      0000EE 00                    3225 	.db #0x00	; 0
      0000EF 00                    3226 	.db #0x00	; 0
      0000F0 00                    3227 	.db #0x00	; 0
      0000F1 00                    3228 	.db #0x00	; 0
      0000F2 00                    3229 	.db #0x00	; 0
      0000F3 00                    3230 	.db #0x00	; 0
      0000F4 00                    3231 	.db #0x00	; 0
      0000F5 00                    3232 	.db #0x00	; 0
      0000F6 00                    3233 	.db #0x00	; 0
      0000F7 00                    3234 	.db #0x00	; 0
      0000F8 00                    3235 	.db #0x00	; 0
      0000F9 00                    3236 	.db #0x00	; 0
      0000FA 00                    3237 	.db #0x00	; 0
      0000FB 00                    3238 	.db #0x00	; 0
      0000FC 00                    3239 	.db #0x00	; 0
      0000FD 00                    3240 	.db #0x00	; 0
      0000FE 00                    3241 	.db #0x00	; 0
      0000FF 00                    3242 	.db #0x00	; 0
      000100 00                    3243 	.db #0x00	; 0
      000101 00                    3244 	.db #0x00	; 0
      000102 00                    3245 	.db #0x00	; 0
      000103 00                    3246 	.db #0x00	; 0
      000104 00                    3247 	.db #0x00	; 0
      000105 00                    3248 	.db #0x00	; 0
      000106 00                    3249 	.db #0x00	; 0
      000107 00                    3250 	.db #0x00	; 0
      000108 00                    3251 	.db #0x00	; 0
      000109 00                    3252 	.db #0x00	; 0
      00010A 00                    3253 	.db #0x00	; 0
      00010B 00                    3254 	.db #0x00	; 0
      00010C 00                    3255 	.db #0x00	; 0
      00010D 00                    3256 	.db #0x00	; 0
      00010E 00                    3257 	.db #0x00	; 0
      00010F 00                    3258 	.db #0x00	; 0
      000110 00                    3259 	.db #0x00	; 0
      000111 00                    3260 	.db #0x00	; 0
      000112 00                    3261 	.db #0x00	; 0
      000113 00                    3262 	.db #0x00	; 0
      000114 00                    3263 	.db #0x00	; 0
      000115 00                    3264 	.db #0x00	; 0
      000116 00                    3265 	.db #0x00	; 0
      000117 00                    3266 	.db #0x00	; 0
      000118 00                    3267 	.db #0x00	; 0
      000119 00                    3268 	.db #0x00	; 0
      00011A 00                    3269 	.db #0x00	; 0
      00011B 00                    3270 	.db #0x00	; 0
      00011C 00                    3271 	.db #0x00	; 0
      00011D 00                    3272 	.db #0x00	; 0
      00011E 00                    3273 	.db #0x00	; 0
      00011F 00                    3274 	.db #0x00	; 0
      000120 00                    3275 	.db #0x00	; 0
      000121 00                    3276 	.db #0x00	; 0
      000122 00                    3277 	.db #0x00	; 0
      000123 00                    3278 	.db #0x00	; 0
      000124 00                    3279 	.db #0x00	; 0
      000125 00                    3280 	.db #0x00	; 0
      000126 00                    3281 	.db #0x00	; 0
      000127 00                    3282 	.db #0x00	; 0
      000128 00                    3283 	.db #0x00	; 0
      000129 00                    3284 	.db #0x00	; 0
      00012A 00                    3285 	.db #0x00	; 0
      00012B 00                    3286 	.db #0x00	; 0
      00012C 00                    3287 	.db #0x00	; 0
      00012D 00                    3288 	.db #0x00	; 0
      00012E 00                    3289 	.db #0x00	; 0
      00012F 00                    3290 	.db #0x00	; 0
      000130 00                    3291 	.db #0x00	; 0
      000131 00                    3292 	.db #0x00	; 0
      000132 00                    3293 	.db #0x00	; 0
      000133 00                    3294 	.db #0x00	; 0
      000134 00                    3295 	.db #0x00	; 0
      000135 00                    3296 	.db #0x00	; 0
      000136 00                    3297 	.db #0x00	; 0
      000137 00                    3298 	.db #0x00	; 0
      000138 00                    3299 	.db #0x00	; 0
      000139 00                    3300 	.db #0x00	; 0
      00013A 00                    3301 	.db #0x00	; 0
      00013B 00                    3302 	.db #0x00	; 0
      00013C 00                    3303 	.db #0x00	; 0
      00013D 00                    3304 	.db #0x00	; 0
      00013E 00                    3305 	.db #0x00	; 0
      00013F 00                    3306 	.db #0x00	; 0
      000140 00                    3307 	.db #0x00	; 0
      000141 00                    3308 	.db #0x00	; 0
      000142 00                    3309 	.db #0x00	; 0
      000143 00                    3310 	.db #0x00	; 0
      000144 00                    3311 	.db #0x00	; 0
      000145 00                    3312 	.db #0x00	; 0
      000146 00                    3313 	.db #0x00	; 0
      000147 00                    3314 	.db #0x00	; 0
      000148 00                    3315 	.db #0x00	; 0
      000149 00                    3316 	.db #0x00	; 0
      00014A 00                    3317 	.db #0x00	; 0
      00014B 00                    3318 	.db #0x00	; 0
      00014C 00                    3319 	.db #0x00	; 0
      00014D 00                    3320 	.db #0x00	; 0
      00014E 00                    3321 	.db #0x00	; 0
      00014F 00                    3322 	.db #0x00	; 0
      000150 00                    3323 	.db #0x00	; 0
      000151 00                    3324 	.db #0x00	; 0
      000152 00                    3325 	.db #0x00	; 0
      000153 00                    3326 	.db #0x00	; 0
      000154 00                    3327 	.db #0x00	; 0
      000155 00                    3328 	.db #0x00	; 0
      000156 00                    3329 	.db #0x00	; 0
      000157 00                    3330 	.db #0x00	; 0
      000158 00                    3331 	.db #0x00	; 0
      000159 00                    3332 	.db #0x00	; 0
      00015A 00                    3333 	.db #0x00	; 0
      00015B 00                    3334 	.db #0x00	; 0
      00015C 00                    3335 	.db #0x00	; 0
      00015D 00                    3336 	.db #0x00	; 0
      00015E 00                    3337 	.db #0x00	; 0
      00015F 00                    3338 	.db #0x00	; 0
      000160 00                    3339 	.db #0x00	; 0
      000161 00                    3340 	.db #0x00	; 0
      000162 00                    3341 	.db #0x00	; 0
      000163 00                    3342 	.db #0x00	; 0
      000164 00                    3343 	.db #0x00	; 0
      000165 00                    3344 	.db #0x00	; 0
      000166 00                    3345 	.db #0x00	; 0
      000167 00                    3346 	.db #0x00	; 0
      000168                       3347 __xinit__screenTitleMap:
      000168 00                    3348 	.db #0x00	; 0
      000169 00                    3349 	.db #0x00	; 0
      00016A 00                    3350 	.db #0x00	; 0
      00016B 00                    3351 	.db #0x00	; 0
      00016C 00                    3352 	.db #0x00	; 0
      00016D 00                    3353 	.db #0x00	; 0
      00016E 00                    3354 	.db #0x00	; 0
      00016F 00                    3355 	.db #0x00	; 0
      000170 00                    3356 	.db #0x00	; 0
      000171 00                    3357 	.db #0x00	; 0
      000172 00                    3358 	.db #0x00	; 0
      000173 00                    3359 	.db #0x00	; 0
      000174 00                    3360 	.db #0x00	; 0
      000175 00                    3361 	.db #0x00	; 0
      000176 00                    3362 	.db #0x00	; 0
      000177 00                    3363 	.db #0x00	; 0
      000178 00                    3364 	.db #0x00	; 0
      000179 00                    3365 	.db #0x00	; 0
      00017A 00                    3366 	.db #0x00	; 0
      00017B 00                    3367 	.db #0x00	; 0
      00017C 00                    3368 	.db #0x00	; 0
      00017D 00                    3369 	.db #0x00	; 0
      00017E 00                    3370 	.db #0x00	; 0
      00017F 00                    3371 	.db #0x00	; 0
      000180 00                    3372 	.db #0x00	; 0
      000181 00                    3373 	.db #0x00	; 0
      000182 00                    3374 	.db #0x00	; 0
      000183 00                    3375 	.db #0x00	; 0
      000184 00                    3376 	.db #0x00	; 0
      000185 00                    3377 	.db #0x00	; 0
      000186 00                    3378 	.db #0x00	; 0
      000187 00                    3379 	.db #0x00	; 0
      000188 00                    3380 	.db #0x00	; 0
      000189 00                    3381 	.db #0x00	; 0
      00018A 00                    3382 	.db #0x00	; 0
      00018B 00                    3383 	.db #0x00	; 0
      00018C 00                    3384 	.db #0x00	; 0
      00018D 00                    3385 	.db #0x00	; 0
      00018E 00                    3386 	.db #0x00	; 0
      00018F 00                    3387 	.db #0x00	; 0
      000190 00                    3388 	.db #0x00	; 0
      000191 00                    3389 	.db #0x00	; 0
      000192 00                    3390 	.db #0x00	; 0
      000193 00                    3391 	.db #0x00	; 0
      000194 00                    3392 	.db #0x00	; 0
      000195 00                    3393 	.db #0x00	; 0
      000196 00                    3394 	.db #0x00	; 0
      000197 00                    3395 	.db #0x00	; 0
      000198 00                    3396 	.db #0x00	; 0
      000199 00                    3397 	.db #0x00	; 0
      00019A 00                    3398 	.db #0x00	; 0
      00019B 00                    3399 	.db #0x00	; 0
      00019C 00                    3400 	.db #0x00	; 0
      00019D 00                    3401 	.db #0x00	; 0
      00019E 00                    3402 	.db #0x00	; 0
      00019F 00                    3403 	.db #0x00	; 0
      0001A0 00                    3404 	.db #0x00	; 0
      0001A1 00                    3405 	.db #0x00	; 0
      0001A2 00                    3406 	.db #0x00	; 0
      0001A3 00                    3407 	.db #0x00	; 0
      0001A4 00                    3408 	.db #0x00	; 0
      0001A5 00                    3409 	.db #0x00	; 0
      0001A6 00                    3410 	.db #0x00	; 0
      0001A7 00                    3411 	.db #0x00	; 0
      0001A8 00                    3412 	.db #0x00	; 0
      0001A9 00                    3413 	.db #0x00	; 0
      0001AA 00                    3414 	.db #0x00	; 0
      0001AB 00                    3415 	.db #0x00	; 0
      0001AC 00                    3416 	.db #0x00	; 0
      0001AD 00                    3417 	.db #0x00	; 0
      0001AE 00                    3418 	.db #0x00	; 0
      0001AF 00                    3419 	.db #0x00	; 0
      0001B0 00                    3420 	.db #0x00	; 0
      0001B1 00                    3421 	.db #0x00	; 0
      0001B2 00                    3422 	.db #0x00	; 0
      0001B3 00                    3423 	.db #0x00	; 0
      0001B4 00                    3424 	.db #0x00	; 0
      0001B5 00                    3425 	.db #0x00	; 0
      0001B6 00                    3426 	.db #0x00	; 0
      0001B7 00                    3427 	.db #0x00	; 0
      0001B8 00                    3428 	.db #0x00	; 0
      0001B9 00                    3429 	.db #0x00	; 0
      0001BA 00                    3430 	.db #0x00	; 0
      0001BB 00                    3431 	.db #0x00	; 0
      0001BC 26                    3432 	.db #0x26	; 38
      0001BD 27                    3433 	.db #0x27	; 39
      0001BE 28                    3434 	.db #0x28	; 40
      0001BF 29                    3435 	.db #0x29	; 41
      0001C0 2A                    3436 	.db #0x2a	; 42
      0001C1 00                    3437 	.db #0x00	; 0
      0001C2 00                    3438 	.db #0x00	; 0
      0001C3 00                    3439 	.db #0x00	; 0
      0001C4 00                    3440 	.db #0x00	; 0
      0001C5 00                    3441 	.db #0x00	; 0
      0001C6 00                    3442 	.db #0x00	; 0
      0001C7 00                    3443 	.db #0x00	; 0
      0001C8 00                    3444 	.db #0x00	; 0
      0001C9 00                    3445 	.db #0x00	; 0
      0001CA 00                    3446 	.db #0x00	; 0
      0001CB 00                    3447 	.db #0x00	; 0
      0001CC 00                    3448 	.db #0x00	; 0
      0001CD 00                    3449 	.db #0x00	; 0
      0001CE 00                    3450 	.db #0x00	; 0
      0001CF 00                    3451 	.db #0x00	; 0
      0001D0 00                    3452 	.db #0x00	; 0
      0001D1 00                    3453 	.db #0x00	; 0
      0001D2 00                    3454 	.db #0x00	; 0
      0001D3 00                    3455 	.db #0x00	; 0
      0001D4 00                    3456 	.db #0x00	; 0
      0001D5 00                    3457 	.db #0x00	; 0
      0001D6 00                    3458 	.db #0x00	; 0
      0001D7 00                    3459 	.db #0x00	; 0
      0001D8 00                    3460 	.db #0x00	; 0
      0001D9 00                    3461 	.db #0x00	; 0
      0001DA 00                    3462 	.db #0x00	; 0
      0001DB 00                    3463 	.db #0x00	; 0
      0001DC 00                    3464 	.db #0x00	; 0
      0001DD 00                    3465 	.db #0x00	; 0
      0001DE 00                    3466 	.db #0x00	; 0
      0001DF 00                    3467 	.db #0x00	; 0
      0001E0 00                    3468 	.db #0x00	; 0
      0001E1 00                    3469 	.db #0x00	; 0
      0001E2 00                    3470 	.db #0x00	; 0
      0001E3 00                    3471 	.db #0x00	; 0
      0001E4 00                    3472 	.db #0x00	; 0
      0001E5 00                    3473 	.db #0x00	; 0
      0001E6 2B                    3474 	.db #0x2b	; 43
      0001E7 2C                    3475 	.db #0x2c	; 44
      0001E8 2D                    3476 	.db #0x2d	; 45
      0001E9 2E                    3477 	.db #0x2e	; 46
      0001EA 00                    3478 	.db #0x00	; 0
      0001EB 00                    3479 	.db #0x00	; 0
      0001EC 00                    3480 	.db #0x00	; 0
      0001ED 00                    3481 	.db #0x00	; 0
      0001EE 00                    3482 	.db #0x00	; 0
      0001EF 00                    3483 	.db #0x00	; 0
      0001F0 00                    3484 	.db #0x00	; 0
      0001F1 00                    3485 	.db #0x00	; 0
      0001F2 00                    3486 	.db #0x00	; 0
      0001F3 00                    3487 	.db #0x00	; 0
      0001F4 00                    3488 	.db #0x00	; 0
      0001F5 00                    3489 	.db #0x00	; 0
      0001F6 00                    3490 	.db #0x00	; 0
      0001F7 00                    3491 	.db #0x00	; 0
      0001F8 00                    3492 	.db #0x00	; 0
      0001F9 00                    3493 	.db #0x00	; 0
      0001FA 2F                    3494 	.db #0x2f	; 47
      0001FB 30                    3495 	.db #0x30	; 48	'0'
      0001FC 31                    3496 	.db #0x31	; 49	'1'
      0001FD 32                    3497 	.db #0x32	; 50	'2'
      0001FE 00                    3498 	.db #0x00	; 0
      0001FF 00                    3499 	.db #0x00	; 0
      000200 00                    3500 	.db #0x00	; 0
      000201 00                    3501 	.db #0x00	; 0
      000202 00                    3502 	.db #0x00	; 0
      000203 00                    3503 	.db #0x00	; 0
      000204 00                    3504 	.db #0x00	; 0
      000205 00                    3505 	.db #0x00	; 0
      000206 00                    3506 	.db #0x00	; 0
      000207 00                    3507 	.db #0x00	; 0
      000208 00                    3508 	.db #0x00	; 0
      000209 00                    3509 	.db #0x00	; 0
      00020A 00                    3510 	.db #0x00	; 0
      00020B 00                    3511 	.db #0x00	; 0
      00020C 00                    3512 	.db #0x00	; 0
      00020D 00                    3513 	.db #0x00	; 0
      00020E 00                    3514 	.db #0x00	; 0
      00020F 00                    3515 	.db #0x00	; 0
      000210 00                    3516 	.db #0x00	; 0
      000211 00                    3517 	.db #0x00	; 0
      000212 00                    3518 	.db #0x00	; 0
      000213 00                    3519 	.db #0x00	; 0
      000214 00                    3520 	.db #0x00	; 0
      000215 00                    3521 	.db #0x00	; 0
      000216 00                    3522 	.db #0x00	; 0
      000217 00                    3523 	.db #0x00	; 0
      000218 00                    3524 	.db #0x00	; 0
      000219 00                    3525 	.db #0x00	; 0
      00021A 00                    3526 	.db #0x00	; 0
      00021B 00                    3527 	.db #0x00	; 0
      00021C 00                    3528 	.db #0x00	; 0
      00021D 00                    3529 	.db #0x00	; 0
      00021E 00                    3530 	.db #0x00	; 0
      00021F 00                    3531 	.db #0x00	; 0
      000220 00                    3532 	.db #0x00	; 0
      000221 00                    3533 	.db #0x00	; 0
      000222 00                    3534 	.db #0x00	; 0
      000223 00                    3535 	.db #0x00	; 0
      000224 00                    3536 	.db #0x00	; 0
      000225 00                    3537 	.db #0x00	; 0
      000226 00                    3538 	.db #0x00	; 0
      000227 00                    3539 	.db #0x00	; 0
      000228 00                    3540 	.db #0x00	; 0
      000229 00                    3541 	.db #0x00	; 0
      00022A 00                    3542 	.db #0x00	; 0
      00022B 00                    3543 	.db #0x00	; 0
      00022C 00                    3544 	.db #0x00	; 0
      00022D 00                    3545 	.db #0x00	; 0
      00022E 00                    3546 	.db #0x00	; 0
      00022F 00                    3547 	.db #0x00	; 0
      000230 00                    3548 	.db #0x00	; 0
      000231 00                    3549 	.db #0x00	; 0
      000232 00                    3550 	.db #0x00	; 0
      000233 00                    3551 	.db #0x00	; 0
      000234 00                    3552 	.db #0x00	; 0
      000235 00                    3553 	.db #0x00	; 0
      000236 00                    3554 	.db #0x00	; 0
      000237 00                    3555 	.db #0x00	; 0
      000238 00                    3556 	.db #0x00	; 0
      000239 00                    3557 	.db #0x00	; 0
      00023A 00                    3558 	.db #0x00	; 0
      00023B 00                    3559 	.db #0x00	; 0
      00023C 00                    3560 	.db #0x00	; 0
      00023D 00                    3561 	.db #0x00	; 0
      00023E 00                    3562 	.db #0x00	; 0
      00023F 00                    3563 	.db #0x00	; 0
      000240 00                    3564 	.db #0x00	; 0
      000241 00                    3565 	.db #0x00	; 0
      000242 00                    3566 	.db #0x00	; 0
      000243 00                    3567 	.db #0x00	; 0
      000244 00                    3568 	.db #0x00	; 0
      000245 00                    3569 	.db #0x00	; 0
      000246 00                    3570 	.db #0x00	; 0
      000247 00                    3571 	.db #0x00	; 0
      000248 00                    3572 	.db #0x00	; 0
      000249 00                    3573 	.db #0x00	; 0
      00024A 00                    3574 	.db #0x00	; 0
      00024B 00                    3575 	.db #0x00	; 0
      00024C 00                    3576 	.db #0x00	; 0
      00024D 00                    3577 	.db #0x00	; 0
      00024E 00                    3578 	.db #0x00	; 0
      00024F 00                    3579 	.db #0x00	; 0
      000250 00                    3580 	.db #0x00	; 0
      000251 00                    3581 	.db #0x00	; 0
      000252 00                    3582 	.db #0x00	; 0
      000253 00                    3583 	.db #0x00	; 0
      000254 00                    3584 	.db #0x00	; 0
      000255 00                    3585 	.db #0x00	; 0
      000256 00                    3586 	.db #0x00	; 0
      000257 00                    3587 	.db #0x00	; 0
      000258 00                    3588 	.db #0x00	; 0
      000259 00                    3589 	.db #0x00	; 0
      00025A 00                    3590 	.db #0x00	; 0
      00025B 00                    3591 	.db #0x00	; 0
      00025C 00                    3592 	.db #0x00	; 0
      00025D 00                    3593 	.db #0x00	; 0
      00025E 00                    3594 	.db #0x00	; 0
      00025F 00                    3595 	.db #0x00	; 0
      000260 00                    3596 	.db #0x00	; 0
      000261 00                    3597 	.db #0x00	; 0
      000262 00                    3598 	.db #0x00	; 0
      000263 00                    3599 	.db #0x00	; 0
      000264 00                    3600 	.db #0x00	; 0
      000265 00                    3601 	.db #0x00	; 0
      000266 00                    3602 	.db #0x00	; 0
      000267 00                    3603 	.db #0x00	; 0
      000268 00                    3604 	.db #0x00	; 0
      000269 00                    3605 	.db #0x00	; 0
      00026A 00                    3606 	.db #0x00	; 0
      00026B 00                    3607 	.db #0x00	; 0
      00026C 00                    3608 	.db #0x00	; 0
      00026D 00                    3609 	.db #0x00	; 0
      00026E 00                    3610 	.db #0x00	; 0
      00026F 00                    3611 	.db #0x00	; 0
      000270 00                    3612 	.db #0x00	; 0
      000271 00                    3613 	.db #0x00	; 0
      000272 00                    3614 	.db #0x00	; 0
      000273 00                    3615 	.db #0x00	; 0
      000274 00                    3616 	.db #0x00	; 0
      000275 00                    3617 	.db #0x00	; 0
      000276 00                    3618 	.db #0x00	; 0
      000277 00                    3619 	.db #0x00	; 0
      000278 00                    3620 	.db #0x00	; 0
      000279 00                    3621 	.db #0x00	; 0
      00027A 00                    3622 	.db #0x00	; 0
      00027B 00                    3623 	.db #0x00	; 0
      00027C 00                    3624 	.db #0x00	; 0
      00027D 00                    3625 	.db #0x00	; 0
      00027E 00                    3626 	.db #0x00	; 0
      00027F 00                    3627 	.db #0x00	; 0
      000280 00                    3628 	.db #0x00	; 0
      000281 00                    3629 	.db #0x00	; 0
      000282 00                    3630 	.db #0x00	; 0
      000283 00                    3631 	.db #0x00	; 0
      000284 00                    3632 	.db #0x00	; 0
      000285 00                    3633 	.db #0x00	; 0
      000286 00                    3634 	.db #0x00	; 0
      000287 00                    3635 	.db #0x00	; 0
      000288 00                    3636 	.db #0x00	; 0
      000289 00                    3637 	.db #0x00	; 0
      00028A 00                    3638 	.db #0x00	; 0
      00028B 00                    3639 	.db #0x00	; 0
      00028C 00                    3640 	.db #0x00	; 0
      00028D 00                    3641 	.db #0x00	; 0
      00028E 00                    3642 	.db #0x00	; 0
      00028F 00                    3643 	.db #0x00	; 0
      000290 00                    3644 	.db #0x00	; 0
      000291 00                    3645 	.db #0x00	; 0
      000292 00                    3646 	.db #0x00	; 0
      000293 00                    3647 	.db #0x00	; 0
      000294 00                    3648 	.db #0x00	; 0
      000295 00                    3649 	.db #0x00	; 0
      000296 00                    3650 	.db #0x00	; 0
      000297 00                    3651 	.db #0x00	; 0
      000298 00                    3652 	.db #0x00	; 0
      000299 00                    3653 	.db #0x00	; 0
      00029A 00                    3654 	.db #0x00	; 0
      00029B 00                    3655 	.db #0x00	; 0
      00029C 00                    3656 	.db #0x00	; 0
      00029D 00                    3657 	.db #0x00	; 0
      00029E 00                    3658 	.db #0x00	; 0
      00029F 00                    3659 	.db #0x00	; 0
      0002A0 00                    3660 	.db #0x00	; 0
      0002A1 00                    3661 	.db #0x00	; 0
      0002A2 00                    3662 	.db #0x00	; 0
      0002A3 00                    3663 	.db #0x00	; 0
      0002A4 00                    3664 	.db #0x00	; 0
      0002A5 00                    3665 	.db #0x00	; 0
      0002A6 00                    3666 	.db #0x00	; 0
      0002A7 00                    3667 	.db #0x00	; 0
      0002A8 00                    3668 	.db #0x00	; 0
      0002A9 00                    3669 	.db #0x00	; 0
      0002AA 00                    3670 	.db #0x00	; 0
      0002AB 00                    3671 	.db #0x00	; 0
      0002AC 00                    3672 	.db #0x00	; 0
      0002AD 00                    3673 	.db #0x00	; 0
      0002AE 00                    3674 	.db #0x00	; 0
      0002AF 00                    3675 	.db #0x00	; 0
      0002B0 00                    3676 	.db #0x00	; 0
      0002B1 00                    3677 	.db #0x00	; 0
      0002B2 00                    3678 	.db #0x00	; 0
      0002B3 00                    3679 	.db #0x00	; 0
      0002B4 00                    3680 	.db #0x00	; 0
      0002B5 00                    3681 	.db #0x00	; 0
      0002B6 00                    3682 	.db #0x00	; 0
      0002B7 00                    3683 	.db #0x00	; 0
      0002B8 00                    3684 	.db #0x00	; 0
      0002B9 00                    3685 	.db #0x00	; 0
      0002BA 00                    3686 	.db #0x00	; 0
      0002BB 00                    3687 	.db #0x00	; 0
      0002BC 00                    3688 	.db #0x00	; 0
      0002BD 00                    3689 	.db #0x00	; 0
      0002BE 00                    3690 	.db #0x00	; 0
      0002BF 00                    3691 	.db #0x00	; 0
      0002C0 00                    3692 	.db #0x00	; 0
      0002C1 00                    3693 	.db #0x00	; 0
      0002C2 00                    3694 	.db #0x00	; 0
      0002C3 00                    3695 	.db #0x00	; 0
      0002C4 00                    3696 	.db #0x00	; 0
      0002C5 00                    3697 	.db #0x00	; 0
      0002C6 00                    3698 	.db #0x00	; 0
      0002C7 00                    3699 	.db #0x00	; 0
      0002C8 00                    3700 	.db #0x00	; 0
      0002C9 00                    3701 	.db #0x00	; 0
      0002CA 00                    3702 	.db #0x00	; 0
      0002CB 00                    3703 	.db #0x00	; 0
      0002CC 00                    3704 	.db #0x00	; 0
      0002CD 00                    3705 	.db #0x00	; 0
      0002CE 00                    3706 	.db #0x00	; 0
      0002CF 00                    3707 	.db #0x00	; 0
      0002D0                       3708 __xinit__gamePaused:
      0002D0 01                    3709 	.db #0x01	; 1
      0002D1                       3710 __xinit__xBall:
      0002D1 50 00                 3711 	.dw #0x0050
      0002D3                       3712 __xinit__yBall:
      0002D3 48 00                 3713 	.dw #0x0048
      0002D5                       3714 __xinit__canAImove:
      0002D5 00                    3715 	.db #0x00	; 0
      0002D6                       3716 __xinit__timer:
      0002D6 00                    3717 	.db #0x00	; 0
                                   3718 	.area _CABS (ABS)
